BL51 BANKED LINKER/LOCATER V6.22.2.0                                                    10/29/2021  14:58:47  PAGE 1


BL51 BANKED LINKER/LOCATER V6.22.2.0, INVOKED BY:
C:\KEIL_V5\C51\BIN\BL51.EXE .\Objects\main.obj, .\Objects\Clock.obj, .\Objects\delay.obj, .\Objects\eeprom.obj, .\Object
>> s\io_sensores.obj, .\Objects\monitor.obj, .\Objects\num_serie.obj, .\Objects\pantallas.obj, .\Objects\prog.obj, .\Obj
>> ects\pto_paralelo.obj, .\Objects\tibbo.obj, .\Objects\uart.obj, .\Objects\Accescan.obj, .\Objects\verprint.obj TO .\O
>> bjects\VRFCDOR_PRINT_100 PRINT (.\Listings\VRFCDOR_PRINT_100.m51) RAMSIZE (256)


MEMORY MODEL: LARGE WITH FLOATING POINT ARITHMETIC


INPUT MODULES INCLUDED:
  .\Objects\main.obj (MAIN)
  .\Objects\Clock.obj (CLOCK)
  .\Objects\delay.obj (DELAY)
  .\Objects\eeprom.obj (EEPROM)
  .\Objects\io_sensores.obj (IO_SENSORES)
  .\Objects\monitor.obj (MONITOR)
  .\Objects\num_serie.obj (NUM_SERIE)
  .\Objects\pantallas.obj (PANTALLAS)
  .\Objects\prog.obj (PROG)
  .\Objects\pto_paralelo.obj (PTO_PARALELO)
  .\Objects\tibbo.obj (TIBBO)
  .\Objects\uart.obj (UART)
  .\Objects\Accescan.obj (ACCESCAN)
  .\Objects\verprint.obj (VERPRINT)
  C:\KEIL_V5\C51\LIB\C51FPL.LIB (?C?FPADD)
  C:\KEIL_V5\C51\LIB\C51FPL.LIB (?C?FPMUL)
  C:\KEIL_V5\C51\LIB\C51FPL.LIB (?C?FCAST)
  C:\KEIL_V5\C51\LIB\C51FPL.LIB (?C?CASTF)
  C:\KEIL_V5\C51\LIB\C51FPL.LIB (PRINTF)
  C:\KEIL_V5\C51\LIB\C51FPL.LIB (POW)
  C:\KEIL_V5\C51\LIB\C51FPL.LIB (?C?FPGETOPN)
  C:\KEIL_V5\C51\LIB\C51FPL.LIB (?C?CHKFLOAT)
  C:\KEIL_V5\C51\LIB\C51FPL.LIB (?C?FPCMP)
  C:\KEIL_V5\C51\LIB\C51FPL.LIB (?C?FPNEG)
  C:\KEIL_V5\C51\LIB\C51FPL.LIB (?C?FPROUND)
  C:\KEIL_V5\C51\LIB\C51FPL.LIB (?C?FPCONVERT)
  C:\KEIL_V5\C51\LIB\C51FPL.LIB (EXP)
  C:\KEIL_V5\C51\LIB\C51FPL.LIB (LOG)
  C:\KEIL_V5\C51\LIB\C51FPL.LIB (?C?FPDIV)
  C:\KEIL_V5\C51\LIB\C51FPL.LIB (?C?FTNPWR)
  C:\KEIL_V5\C51\LIB\C51FPL.LIB (?C?FPSERIES)
  C:\KEIL_V5\C51\LIB\C51L.LIB (?C_STARTUP)
  C:\KEIL_V5\C51\LIB\C51L.LIB (?C?COPY)
  C:\KEIL_V5\C51\LIB\C51L.LIB (?C?CLDPTR)
  C:\KEIL_V5\C51\LIB\C51L.LIB (?C?CLDOPTR)
  C:\KEIL_V5\C51\LIB\C51L.LIB (?C?CSTPTR)
  C:\KEIL_V5\C51\LIB\C51L.LIB (?C?CSTOPTR)
  C:\KEIL_V5\C51\LIB\C51L.LIB (?C?IMUL)
  C:\KEIL_V5\C51\LIB\C51L.LIB (?C?IILDX)
  C:\KEIL_V5\C51\LIB\C51L.LIB (?C?LNEG)
  C:\KEIL_V5\C51\LIB\C51L.LIB (?C?ULCMP)
  C:\KEIL_V5\C51\LIB\C51L.LIB (?C?ULSHR)
  C:\KEIL_V5\C51\LIB\C51L.LIB (?C?LLDCODE)
  C:\KEIL_V5\C51\LIB\C51L.LIB (?C?LLDXDATA0)
  C:\KEIL_V5\C51\LIB\C51L.LIB (?C?LLDCODE0)
  C:\KEIL_V5\C51\LIB\C51L.LIB (?C?LSTXDATA)
  C:\KEIL_V5\C51\LIB\C51L.LIB (?C?LSTKXDATA)
BL51 BANKED LINKER/LOCATER V6.22.2.0                                                  10/29/2021  14:58:47  PAGE 2


  C:\KEIL_V5\C51\LIB\C51L.LIB (?C?PLDIXDATA)
  C:\KEIL_V5\C51\LIB\C51L.LIB (?C?PSTXDATA)
  C:\KEIL_V5\C51\LIB\C51L.LIB (?C?CCASE)
  C:\KEIL_V5\C51\LIB\C51L.LIB (STRCAT)
  C:\KEIL_V5\C51\LIB\C51L.LIB (STRNCAT)
  C:\KEIL_V5\C51\LIB\C51L.LIB (?C?STRCMP)
  C:\KEIL_V5\C51\LIB\C51L.LIB (?C?STRCPY)
  C:\KEIL_V5\C51\LIB\C51L.LIB (STRNCPY)
  C:\KEIL_V5\C51\LIB\C51L.LIB (STRLEN)
  C:\KEIL_V5\C51\LIB\C51L.LIB (STRSTR)
  C:\KEIL_V5\C51\LIB\C51L.LIB (STRTOK)
  C:\KEIL_V5\C51\LIB\C51L.LIB (ATOI)
  C:\KEIL_V5\C51\LIB\C51L.LIB (?C_INIT)
  C:\KEIL_V5\C51\LIB\C51L.LIB (?C?ILDIX)
  C:\KEIL_V5\C51\LIB\C51L.LIB (ISDIGIT)
  C:\KEIL_V5\C51\LIB\C51L.LIB (ISSPACE)
  C:\KEIL_V5\C51\LIB\C51L.LIB (STRSPN)
  C:\KEIL_V5\C51\LIB\C51L.LIB (STRPBRK)


LINK MAP OF MODULE:  .\Objects\VRFCDOR_PRINT_100 (MAIN)


            TYPE    BASE      LENGTH    RELOCATION   SEGMENT NAME
            -----------------------------------------------------

            * * * * * * *   D A T A   M E M O R Y   * * * * * * *
            REG     0000H     0008H     ABSOLUTE     "REG BANK 0"
            DATA    0008H     0005H     UNIT         ?DT?UART
            DATA    000DH     0005H     UNIT         _DATA_GROUP_
                    0012H     000EH                  *** GAP ***
            BIT     0020H.0   0001H.1   UNIT         _BIT_GROUP_
            BIT     0021H.1   0000H.1   UNIT         ?BI?MAIN
            BIT     0021H.2   0000H.1   UNIT         ?BI?EEPROM
            BIT     0021H.3   0000H.1   UNIT         ?BI?UART
                    0021H.4   0000H.4                *** GAP ***
            IDATA   0022H     008AH     UNIT         ?ID?MAIN
            IDATA   00ACH     0001H     UNIT         ?STACK

            * * * * * * *  X D A T A   M E M O R Y  * * * * * * *
            XDATA   0000H     00B5H     UNIT         _XDATA_GROUP_
            XDATA   00B5H     005FH     UNIT         ?XD?PROG
            XDATA   0114H     0048H     UNIT         ?XD?MAIN
            XDATA   015CH     001FH     UNIT         ?XD?VERPRINT
            XDATA   017BH     0003H     UNIT         ?XD?EEPROM
            XDATA   017EH     0003H     UNIT         ?XD?STRTOK
            XDATA   0181H     0001H     UNIT         ?XD?CLOCK

            * * * * * * *   C O D E   M E M O R Y   * * * * * * *
            CODE    0000H     0003H     ABSOLUTE     
            CODE    0003H     0008H     UNIT         ?PR?P_CK?CLOCK
            CODE    000BH     0003H     ABSOLUTE     
            CODE    000EH     0015H     UNIT         ?PR?_STRLEN?STRLEN
            CODE    0023H     0003H     ABSOLUTE     
            CODE    0026H     0D34H     UNIT         ?CO?PROG
            CODE    0D5AH     0B13H     UNIT         ?C?LIB_CODE
            CODE    186DH     0483H     UNIT         ?PR?PRINTF?PRINTF
BL51 BANKED LINKER/LOCATER V6.22.2.0                                                  10/29/2021  14:58:47  PAGE 3


            CODE    1CF0H     0453H     UNIT         ?PR?LEE_TICKET?VERPRINT
            CODE    2143H     03A5H     UNIT         ?PR?_VALIDA_TRAMA_PTO?ACCESCAN
            CODE    24E8H     02D0H     UNIT         ?PR?_TWO_BYTEHEX_DECIMAL?CLOCK
            CODE    27B8H     023AH     UNIT         ?PR?MENU?PROG
            CODE    29F2H     01EFH     UNIT         ?CO?VERPRINT
            CODE    2BE1H     01D8H     UNIT         ?PR?_BLOCK_READ_CLOCK_ASCII?CLOCK
            CODE    2DB9H     0166H     UNIT         ?PR?_POW?POW
            CODE    2F1FH     0148H     UNIT         ?PR?_TRAMA_PRINT_COD_BARRAS?PTO_PARALELO
            CODE    3067H     013EH     UNIT         ?PR?PROG_SIN_COBRO?PROG
            CODE    31A5H     012EH     UNIT         ?PR?_PANTALLALCD_LINEA_2?PANTALLAS
            CODE    32D3H     0129H     UNIT         ?PR?LOG?LOG
            CODE    33FCH     0112H     UNIT         ?CO?PANTALLAS
            CODE    350EH     0110H     UNIT         ?PR?LOAD_AND_SEND_ID_COD?PTO_PARALELO
            CODE    361EH     0110H     UNIT         ?PR?_BLOQUE_HORARIO?VERPRINT
            CODE    372EH     0109H     UNIT         ?PR?_CHECK_FECHAOUT_2?VERPRINT
            CODE    3837H     00FCH     UNIT         ?PR?PROG_DEBUG?PROG
            CODE    3933H     00FCH     UNIT         ?PR?PROG_USE_LPR?PROG
            CODE    3A2FH     00FCH     UNIT         ?PR?TIPO_PANTALLA?PROG
            CODE    3B2BH     00FCH     UNIT         ?PR?PROG_COMPARACION_ACTIVA?PROG
            CODE    3C27H     00FCH     UNIT         ?PR?PROG_QR_BARRAS?PROG
            CODE    3D23H     00E7H     UNIT         ?PR?_CMD_LPR_SALIDA_PRINT?MONITOR
            CODE    3E0AH     00E4H     UNIT         ?PR?_STRTOK?STRTOK
            CODE    3EEEH     00DBH     UNIT         ?PR?_ATOI?ATOI
            CODE    3FC9H     00D6H     UNIT         ?PR?_CMD_LPR_SALIDA_WIEGAND?MONITOR
            CODE    409FH     00C6H     UNIT         ?PR?SHOW?PROG
            CODE    4165H     00C5H     UNIT         ?PR?_STRNCAT?STRNCAT
            CODE    422AH     00C4H     UNIT         ?PR?_BLOCK_READ_CLOCK?CLOCK
            CODE    42EEH     00BFH     UNIT         ?PR?_STRSTR?STRSTR
            CODE    43ADH     00BDH     UNIT         ?PR?PROG_COD_PARK?PROG
            CODE    446AH     00BDH     UNIT         ?PR?PROG_TIEMPO_GRACIA?PROG
            CODE    4527H     00B9H     UNIT         ?PR?MAIN?MAIN
            CODE    45E0H     00B6H     UNIT         ?PR?PROG_ID_CLIENTE?PROG
            CODE    4696H     00B4H     UNIT         ?PR?_SEND_PORT?PTO_PARALELO
            CODE    474AH     00B2H     UNIT         ?C_INITSEG
            CODE    47FCH     00A6H     UNIT         ?PR?_BLOCK_READ_CLOCK_HEX?CLOCK
            CODE    48A2H     00A2H     UNIT         ?PR?_PANTALLALCD?PANTALLAS
            CODE    4944H     00A0H     UNIT         ?CO?IO_SENSORES
            CODE    49E4H     009BH     UNIT         ?PR?_VALIDA_TRAMA_MONITOR?MONITOR
            CODE    4A7FH     009AH     UNIT         ?PR?EXP?EXP
            CODE    4B19H     0097H     UNIT         ?PR?_RECIBE_PORT?PTO_PARALELO
            CODE    4BB0H     0095H     UNIT         ?PR?_RECIBE_CMD_MONITOR?MONITOR
            CODE    4C45H     0090H     UNIT         ?PR?_LEE_CLK?CLOCK
            CODE    4CD5H     0090H     UNIT         ?PR?_GETOPTION?PROG
            CODE    4D65H     008FH     UNIT         ?PR?_BLOCK_WRITE_CLOCK_ASCII?CLOCK
            CODE    4DF4H     008CH     UNIT         ?C_C51STARTUP
            CODE    4E80H     008AH     UNIT         ?PR?VARIABLE_INICIO?MAIN
            CODE    4F0AH     008AH     UNIT         ?PR?_ESCRIBIRMEMORIA?EEPROM
            CODE    4F94H     0088H     UNIT         ?PR?_SEND_PORTERR?PTO_PARALELO
            CODE    501CH     0088H     UNIT         ?PR?RX_DATA?TIBBO
            CODE    50A4H     0085H     UNIT         ?PR?COM_ISR?UART
            CODE    5129H     0084H     UNIT         ?PR?_STRSPN?STRSPN
            CODE    51ADH     0081H     UNIT         ?PR?_STRPBRK?STRPBRK
            CODE    522EH     0080H     UNIT         ?PR?_INGRESADATO?PROG
            CODE    52AEH     0073H     UNIT         ?PR?MSJ_LCD_INFORMATIVO?IO_SENSORES
            CODE    5321H     006FH     UNIT         ?PR?VALIDASENSORESPASO?IO_SENSORES
            CODE    5390H     006EH     UNIT         ?PR?_DEBUGBUFFERMF?TIBBO
            CODE    53FEH     006BH     UNIT         ?PR?_STRCAT?STRCAT
BL51 BANKED LINKER/LOCATER V6.22.2.0                                                  10/29/2021  14:58:47  PAGE 4


            CODE    5469H     0068H     UNIT         ?PR?_STRNCPY?STRNCPY
            CODE    54D1H     0065H     UNIT         ?PR?_DEBUG_CHR_TIBBO32?TIBBO
            CODE    5536H     0062H     UNIT         ?PR?_LISTACOMANDOS?PROG
            CODE    5598H     005EH     UNIT         ?PR?_RASPBERRY_DATA?PANTALLAS
            CODE    55F6H     0058H     UNIT         ?PR?_LEERMEMORIA?EEPROM
            CODE    564EH     0057H     UNIT         ?CO?TIBBO
            CODE    56A5H     0053H     UNIT         ?PR?_BYTEHEX_DECIMAL?CLOCK
            CODE    56F8H     004DH     UNIT         ?PR?L_D_M?EEPROM
            CODE    5745H     0048H     UNIT         ?PR?_TX_AUX?TIBBO
            CODE    578DH     0047H     UNIT         ?PR?PROG_CLIENTE?PROG
            CODE    57D4H     0047H     UNIT         ?PR?PROG_NIT?PROG
            CODE    581BH     0047H     UNIT         ?PR?PROG_NOM_PARQ?PROG
            CODE    5862H     0047H     UNIT         ?PR?PROG_DIRECCION?PROG
            CODE    58A9H     0047H     UNIT         ?PR?PROG_MSJ1?PROG
            CODE    58F0H     0047H     UNIT         ?PR?PROG_MSJ2?PROG
            CODE    5937H     0047H     UNIT         ?PR?PROG_MSJ3?PROG
            CODE    597EH     0047H     UNIT         ?PR?PROG_MSJ4?PROG
            CODE    59C5H     0047H     UNIT         ?PR?PROG_MSJ5?PROG
            CODE    5A0CH     0047H     UNIT         ?PR?PROG_MSJ6?PROG
            CODE    5A53H     0047H     UNIT         ?PR?PROG_MSJ7?PROG
            CODE    5A9AH     0047H     UNIT         ?PR?_DEBUG_CHR_TIBBO?TIBBO
            CODE    5AE1H     0046H     UNIT         ?PR?_LCD_TXT_NUM_CHAR?PANTALLAS
            CODE    5B27H     0045H     UNIT         ?PR?_VALIDARCLAVE?PROG
            CODE    5B6CH     0041H     UNIT         ?PR?_TWO_ONE?CLOCK
            CODE    5BADH     0041H     UNIT         ?PR?_MONITOR_CHR?MONITOR
            CODE    5BEEH     0040H     UNIT         ?PR?_GETCMD?PROG
            CODE    5C2EH     003FH     UNIT         ?PR?_EB_CLK?CLOCK
            CODE    5C6DH     003FH     UNIT         ?PR?_WR_EEPROM?EEPROM
            CODE    5CACH     003FH     UNIT         ?PR?FORMATO_EEPROM?EEPROM
            CODE    5CEBH     003EH     UNIT         ?PR?_PUTCHAR?MAIN
            CODE    5D29H     003EH     UNIT         ?PR?_DEBUG_TXT_TIBBO?TIBBO
            CODE    5D67H     003EH     UNIT         ?PR?COM_BAUDRATE?UART
            CODE    5DA5H     003CH     UNIT         ?PR?CONFIRMACION?EEPROM
            CODE    5DE1H     003CH     UNIT         ?PR?_LCD_TXT?PANTALLAS
            CODE    5E1DH     003BH     UNIT         ?PR?_COM_PUTCHAR?UART
            CODE    5E58H     0039H     UNIT         ?PR?_RD_EEPROM?EEPROM
            CODE    5E91H     0035H     UNIT         ?PR?RELOJ_PANTALLA_LCD?PANTALLAS
            CODE    5EC6H     002CH     UNIT         ?PR?LOAD_AND_SEND_INFO_RELOJ?PTO_PARALELO
            CODE    5EF2H     002AH     UNIT         ?PR?COM_INITIALIZE?UART
            CODE    5F1CH     0028H     UNIT         ?PR?_WR_CLK?CLOCK
            CODE    5F44H     0026H     UNIT         ?PR?COM_GETCHAR?UART
            CODE    5F6AH     0024H     UNIT         ?PR?_NUM_NUM?VERPRINT
            CODE    5F8EH     0022H     UNIT         ?PR?_E_D_M?EEPROM
            CODE    5FB0H     0021H     UNIT         ?PR?_HEX_BCD?CLOCK
            CODE    5FD1H     0020H     UNIT         ?PR?ACKD?EEPROM
            CODE    5FF1H     0020H     UNIT         ?PR?ACK_LECT?EEPROM
            CODE    6011H     0020H     UNIT         ?PR?TIME_BIT?TIBBO
            CODE    6031H     001FH     UNIT         ?PR?VALIDASENSOR?IO_SENSORES
            CODE    6050H     001EH     UNIT         ?PR?_BCD_HEX?CLOCK
            CODE    606EH     001EH     UNIT         ?PR?_TX_CHRLCD?PANTALLAS
            CODE    608CH     001BH     UNIT         ?PR?_DELAY_1MS?DELAY
            CODE    60A7H     001BH     UNIT         ?PR?_NUM_CHAR?VERPRINT
            CODE    60C2H     001AH     UNIT         ?PR?TIME_MBIT?TIBBO
            CODE    60DCH     0019H     UNIT         ?PR?TIMER0_INT?MAIN
            CODE    60F5H     0018H     UNIT         ?CO?ACCESCAN
            CODE    610DH     0017H     UNIT         ?PR?DISPLAYCURSOR?PROG
            CODE    6124H     0014H     UNIT         ?PR?_ISSPACE?ISSPACE
BL51 BANKED LINKER/LOCATER V6.22.2.0                                                  10/29/2021  14:58:47  PAGE 5


            CODE    6138H     0012H     UNIT         ?PR?_DELAY_20US?DELAY
            CODE    614AH     0012H     UNIT         ?PR?START?EEPROM
            CODE    615CH     0012H     UNIT         ?PR?DIR_BOARD?IO_SENSORES
            CODE    616EH     0012H     UNIT         ?PR?PULSO_BUS?PTO_PARALELO
            CODE    6180H     0012H     UNIT         ?PR?COM_RBUFLEN?UART
            CODE    6192H     0012H     UNIT         ?PR?COM_TBUFLEN?UART
            CODE    61A4H     0010H     UNIT         ?PR?INI_TIMER?MAIN
            CODE    61B4H     0010H     UNIT         ?PR?INICIA_BOARD?MAIN
            CODE    61C4H     0010H     UNIT         ?PR?_GRABA_SERIE_ASCII_HEX?NUM_SERIE
            CODE    61D4H     0010H     UNIT         ?CO?PTO_PARALELO
            CODE    61E4H     000FH     UNIT         ?PR?_ISDIGIT?ISDIGIT
            CODE    61F3H     000EH     UNIT         ?PR?CLEAR_BUFFER?UART
            CODE    6201H     000CH     UNIT         ?PR?_GETKEY?MAIN
            CODE    620DH     000AH     UNIT         ?PR?COND_INI_PTO?PTO_PARALELO
            CODE    6217H     0009H     UNIT         ?PR?STOP?EEPROM
            CODE    6220H     0009H     UNIT         ?PR?DEBUG_DIVIDIR_TEXTO?TIBBO
            CODE    6229H     0007H     UNIT         ?PR?COND_INI_CLOCK?CLOCK
            CODE    6230H     0007H     UNIT         ?PR?SEL_FUNCION?IO_SENSORES
            CODE    6237H     0007H     UNIT         ?PR?SEL_AUTO?IO_SENSORES
            CODE    623EH     0007H     UNIT         ?PR?SEL_SENSOR2?IO_SENSORES
            CODE    6245H     0007H     UNIT         ?PR?SEL_SENSOR1?IO_SENSORES
            CODE    624CH     0007H     UNIT         ?PR?SEL_DIR1?IO_SENSORES
            CODE    6253H     0007H     UNIT         ?PR?SEL_DIR2?IO_SENSORES
            CODE    625AH     0006H     UNIT         ?PR?P_ME?EEPROM
            CODE    6260H     0005H     UNIT         ?PR?ON_TIMER0_INTERRUP?MAIN
            CODE    6265H     0005H     UNIT         ?PR?COND_INI_TIBBO?TIBBO
            CODE    626AH     0003H     UNIT         ?PR?OFF_TIMER0_INTERRUP?MAIN
            CODE    626DH     0003H     UNIT         ?CO?MAIN
            CODE    6270H     0001H     UNIT         ?PR?DELAY?DELAY



OVERLAY MAP OF MODULE:   .\Objects\VRFCDOR_PRINT_100 (MAIN)


SEGMENT                                             BIT_GROUP          DATA_GROUP          XDATA_GROUP
  +--> CALLED SEGMENT                            START    LENGTH     START    LENGTH     START    LENGTH
--------------------------------------------------------------------------------------------------------
?C_C51STARTUP                                    -----    -----      -----    -----      -----    -----
  +--> ?PR?MAIN?MAIN
  +--> ?C_INITSEG

?PR?MAIN?MAIN                                    -----    -----      -----    -----      0000H    000EH
  +--> ?PR?INI_TIMER?MAIN
  +--> ?PR?ON_TIMER0_INTERRUP?MAIN
  +--> ?PR?COM_INITIALIZE?UART
  +--> ?PR?COM_BAUDRATE?UART
  +--> ?PR?INICIA_BOARD?MAIN
  +--> ?PR?TIME_BIT?TIBBO
  +--> ?PR?TIME_MBIT?TIBBO
  +--> ?PR?_TX_AUX?TIBBO
  +--> ?PR?SEL_FUNCION?IO_SENSORES
  +--> ?PR?MENU?PROG
  +--> ?PR?VARIABLE_INICIO?MAIN
  +--> ?PR?_RECIBE_CMD_MONITOR?MONITOR
  +--> ?PR?DEBUG_DIVIDIR_TEXTO?TIBBO
  +--> ?PR?_VALIDA_TRAMA_MONITOR?MONITOR
BL51 BANKED LINKER/LOCATER V6.22.2.0                                                  10/29/2021  14:58:47  PAGE 6


  +--> ?PR?_DEBUGBUFFERMF?TIBBO
  +--> ?PR?_DEBUG_TXT_TIBBO?TIBBO
  +--> ?PR?LEE_TICKET?VERPRINT
  +--> ?PR?_RECIBE_PORT?PTO_PARALELO
  +--> ?PR?_DEBUG_CHR_TIBBO?TIBBO
  +--> ?CO?MAIN
  +--> ?PR?_VALIDA_TRAMA_PTO?ACCESCAN
  +--> ?PR?MSJ_LCD_INFORMATIVO?IO_SENSORES

?PR?COM_INITIALIZE?UART                          -----    -----      -----    -----      -----    -----
  +--> ?PR?COM_BAUDRATE?UART

?PR?COM_BAUDRATE?UART                            -----    -----      -----    -----      -----    -----
  +--> ?PR?_RD_EEPROM?EEPROM

?PR?_RD_EEPROM?EEPROM                            -----    -----      -----    -----      -----    -----
  +--> ?PR?START?EEPROM
  +--> ?PR?ACK_LECT?EEPROM
  +--> ?PR?_E_D_M?EEPROM
  +--> ?PR?ACKD?EEPROM
  +--> ?PR?L_D_M?EEPROM
  +--> ?PR?STOP?EEPROM

?PR?ACK_LECT?EEPROM                              -----    -----      -----    -----      -----    -----
  +--> ?PR?_E_D_M?EEPROM

?PR?_E_D_M?EEPROM                                -----    -----      -----    -----      -----    -----
  +--> ?PR?P_ME?EEPROM

?PR?ACKD?EEPROM                                  -----    -----      -----    -----      -----    -----
  +--> ?PR?_E_D_M?EEPROM

?PR?INICIA_BOARD?MAIN                            -----    -----      -----    -----      -----    -----
  +--> ?PR?COND_INI_TIBBO?TIBBO
  +--> ?PR?COND_INI_CLOCK?CLOCK
  +--> ?PR?COND_INI_PTO?PTO_PARALELO

?PR?_TX_AUX?TIBBO                                -----    -----      -----    -----      -----    -----
  +--> ?PR?TIME_BIT?TIBBO

?PR?MENU?PROG                                    -----    -----      -----    -----      000EH    0031H
  +--> ?CO?PROG
  +--> ?PR?PRINTF?PRINTF
  +--> ?PR?CLEAR_BUFFER?UART
  +--> ?PR?_INGRESADATO?PROG
  +--> ?PR?_GETCMD?PROG
  +--> ?PR?_VALIDARCLAVE?PROG
  +--> ?PR?DISPLAYCURSOR?PROG
  +--> ?PR?_STRLEN?STRLEN
  +--> ?PR?_GETOPTION?PROG
  +--> ?PR?_STRCAT?STRCAT
  +--> ?PR?_LISTACOMANDOS?PROG
  +--> ?PR?PROG_ID_CLIENTE?PROG
  +--> ?PR?PROG_COD_PARK?PROG
  +--> ?PR?PROG_TIEMPO_GRACIA?PROG
  +--> ?PR?PROG_SIN_COBRO?PROG
  +--> ?PR?PROG_DEBUG?PROG
BL51 BANKED LINKER/LOCATER V6.22.2.0                                                  10/29/2021  14:58:47  PAGE 7


  +--> ?PR?PROG_USE_LPR?PROG
  +--> ?PR?TIPO_PANTALLA?PROG
  +--> ?PR?PROG_COMPARACION_ACTIVA?PROG
  +--> ?PR?PROG_QR_BARRAS?PROG
  +--> ?PR?PROG_CLIENTE?PROG
  +--> ?PR?PROG_NIT?PROG
  +--> ?PR?PROG_NOM_PARQ?PROG
  +--> ?PR?PROG_DIRECCION?PROG
  +--> ?PR?PROG_MSJ1?PROG
  +--> ?PR?PROG_MSJ2?PROG
  +--> ?PR?PROG_MSJ3?PROG
  +--> ?PR?PROG_MSJ4?PROG
  +--> ?PR?PROG_MSJ5?PROG
  +--> ?PR?PROG_MSJ6?PROG
  +--> ?PR?PROG_MSJ7?PROG
  +--> ?PR?SHOW?PROG

?PR?PRINTF?PRINTF                                0020H.0  0001H.1    000DH    0005H      0081H    0030H
  +--> ?PR?_PUTCHAR?MAIN

?PR?_PUTCHAR?MAIN                                -----    -----      -----    -----      00B1H    0003H
  +--> ?PR?_COM_PUTCHAR?UART

?PR?_COM_PUTCHAR?UART                            -----    -----      -----    -----      00B4H    0001H
  +--> ?PR?COM_TBUFLEN?UART

?PR?_INGRESADATO?PROG                            -----    -----      -----    -----      007DH    0004H
  +--> ?PR?_GETKEY?MAIN
  +--> ?CO?PROG
  +--> ?PR?PRINTF?PRINTF
  +--> ?PR?_PUTCHAR?MAIN

?PR?_GETKEY?MAIN                                 -----    -----      -----    -----      -----    -----
  +--> ?PR?COM_GETCHAR?UART

?PR?COM_GETCHAR?UART                             -----    -----      -----    -----      -----    -----
  +--> ?PR?COM_RBUFLEN?UART

?PR?_GETCMD?PROG                                 -----    -----      -----    -----      003FH    0007H
  +--> ?CO?PROG
  +--> ?PR?_STRTOK?STRTOK

?PR?_STRTOK?STRTOK                               -----    -----      -----    -----      004AH    0006H
  +--> ?PR?_STRSPN?STRSPN
  +--> ?PR?_STRPBRK?STRPBRK

?PR?_STRSPN?STRSPN                               -----    -----      -----    -----      0050H    0008H

?PR?_STRPBRK?STRPBRK                             -----    -----      -----    -----      0050H    0009H

?PR?_VALIDARCLAVE?PROG                           -----    -----      -----    -----      003FH    000AH

?PR?DISPLAYCURSOR?PROG                           -----    -----      -----    -----      -----    -----
  +--> ?CO?PROG
  +--> ?PR?PRINTF?PRINTF

?PR?_GETOPTION?PROG                              -----    -----      -----    -----      003FH    000BH
BL51 BANKED LINKER/LOCATER V6.22.2.0                                                  10/29/2021  14:58:47  PAGE 8


  +--> ?CO?PROG
  +--> ?PR?_STRTOK?STRTOK

?PR?_STRCAT?STRCAT                               -----    -----      -----    -----      0050H    0009H

?PR?_LISTACOMANDOS?PROG                          -----    -----      -----    -----      003FH    0007H

?PR?PROG_ID_CLIENTE?PROG                         -----    -----      -----    -----      003FH    000CH
  +--> ?PR?_RD_EEPROM?EEPROM
  +--> ?CO?PROG
  +--> ?PR?PRINTF?PRINTF
  +--> ?PR?_INGRESADATO?PROG
  +--> ?PR?_ATOI?ATOI
  +--> ?PR?_WR_EEPROM?EEPROM

?PR?_ATOI?ATOI                                   0020H.0  0000H.1    -----    -----      004BH    0005H
  +--> ?PR?_ISSPACE?ISSPACE
  +--> ?PR?_ISDIGIT?ISDIGIT

?PR?_WR_EEPROM?EEPROM                            -----    -----      -----    -----      -----    -----
  +--> ?PR?START?EEPROM
  +--> ?PR?ACKD?EEPROM
  +--> ?PR?_E_D_M?EEPROM
  +--> ?PR?STOP?EEPROM
  +--> ?PR?_DELAY_1MS?DELAY
  +--> ?PR?_DELAY_20US?DELAY

?PR?_DELAY_1MS?DELAY                             -----    -----      -----    -----      -----    -----
  +--> ?PR?_DELAY_20US?DELAY

?PR?PROG_COD_PARK?PROG                           -----    -----      -----    -----      003FH    000CH
  +--> ?PR?_RD_EEPROM?EEPROM
  +--> ?CO?PROG
  +--> ?PR?PRINTF?PRINTF
  +--> ?PR?_INGRESADATO?PROG
  +--> ?PR?_ATOI?ATOI
  +--> ?PR?_WR_EEPROM?EEPROM

?PR?PROG_TIEMPO_GRACIA?PROG                      -----    -----      -----    -----      003FH    000CH
  +--> ?PR?_RD_EEPROM?EEPROM
  +--> ?CO?PROG
  +--> ?PR?PRINTF?PRINTF
  +--> ?PR?_INGRESADATO?PROG
  +--> ?PR?_ATOI?ATOI
  +--> ?PR?_WR_EEPROM?EEPROM

?PR?PROG_SIN_COBRO?PROG                          -----    -----      -----    -----      003FH    000CH
  +--> ?PR?_RD_EEPROM?EEPROM
  +--> ?CO?PROG
  +--> ?PR?PRINTF?PRINTF
  +--> ?PR?_INGRESADATO?PROG
  +--> ?PR?_ATOI?ATOI
  +--> ?PR?_WR_EEPROM?EEPROM

?PR?PROG_DEBUG?PROG                              -----    -----      -----    -----      003FH    000CH
  +--> ?PR?_RD_EEPROM?EEPROM
  +--> ?CO?PROG
BL51 BANKED LINKER/LOCATER V6.22.2.0                                                  10/29/2021  14:58:47  PAGE 9


  +--> ?PR?PRINTF?PRINTF
  +--> ?PR?_INGRESADATO?PROG
  +--> ?PR?_ATOI?ATOI
  +--> ?PR?_WR_EEPROM?EEPROM

?PR?PROG_USE_LPR?PROG                            -----    -----      -----    -----      003FH    000CH
  +--> ?PR?_RD_EEPROM?EEPROM
  +--> ?CO?PROG
  +--> ?PR?PRINTF?PRINTF
  +--> ?PR?_INGRESADATO?PROG
  +--> ?PR?_ATOI?ATOI
  +--> ?PR?_WR_EEPROM?EEPROM

?PR?TIPO_PANTALLA?PROG                           -----    -----      -----    -----      003FH    000CH
  +--> ?PR?_RD_EEPROM?EEPROM
  +--> ?CO?PROG
  +--> ?PR?PRINTF?PRINTF
  +--> ?PR?_INGRESADATO?PROG
  +--> ?PR?_ATOI?ATOI
  +--> ?PR?_WR_EEPROM?EEPROM

?PR?PROG_COMPARACION_ACTIVA?PROG                 -----    -----      -----    -----      003FH    000CH
  +--> ?PR?_RD_EEPROM?EEPROM
  +--> ?CO?PROG
  +--> ?PR?PRINTF?PRINTF
  +--> ?PR?_INGRESADATO?PROG
  +--> ?PR?_ATOI?ATOI
  +--> ?PR?_WR_EEPROM?EEPROM

?PR?PROG_QR_BARRAS?PROG                          -----    -----      -----    -----      003FH    000CH
  +--> ?PR?_RD_EEPROM?EEPROM
  +--> ?CO?PROG
  +--> ?PR?PRINTF?PRINTF
  +--> ?PR?_INGRESADATO?PROG
  +--> ?PR?_ATOI?ATOI
  +--> ?PR?_WR_EEPROM?EEPROM

?PR?PROG_CLIENTE?PROG                            -----    -----      -----    -----      003FH    0030H
  +--> ?CO?PROG
  +--> ?PR?PRINTF?PRINTF
  +--> ?PR?_INGRESADATO?PROG
  +--> ?PR?_ESCRIBIRMEMORIA?EEPROM
  +--> ?PR?_LEERMEMORIA?EEPROM

?PR?_ESCRIBIRMEMORIA?EEPROM                      -----    -----      -----    -----      007DH    0006H
  +--> ?PR?_WR_EEPROM?EEPROM

?PR?_LEERMEMORIA?EEPROM                          -----    -----      -----    -----      007DH    0005H
  +--> ?PR?_RD_EEPROM?EEPROM

?PR?PROG_NIT?PROG                                -----    -----      -----    -----      003FH    0010H
  +--> ?CO?PROG
  +--> ?PR?PRINTF?PRINTF
  +--> ?PR?_INGRESADATO?PROG
  +--> ?PR?_ESCRIBIRMEMORIA?EEPROM
  +--> ?PR?_LEERMEMORIA?EEPROM

BL51 BANKED LINKER/LOCATER V6.22.2.0                                                  10/29/2021  14:58:47  PAGE 10


?PR?PROG_NOM_PARQ?PROG                           -----    -----      -----    -----      003FH    0030H
  +--> ?CO?PROG
  +--> ?PR?PRINTF?PRINTF
  +--> ?PR?_INGRESADATO?PROG
  +--> ?PR?_ESCRIBIRMEMORIA?EEPROM
  +--> ?PR?_LEERMEMORIA?EEPROM

?PR?PROG_DIRECCION?PROG                          -----    -----      -----    -----      003FH    0030H
  +--> ?CO?PROG
  +--> ?PR?PRINTF?PRINTF
  +--> ?PR?_INGRESADATO?PROG
  +--> ?PR?_ESCRIBIRMEMORIA?EEPROM
  +--> ?PR?_LEERMEMORIA?EEPROM

?PR?PROG_MSJ1?PROG                               -----    -----      -----    -----      003FH    003EH
  +--> ?CO?PROG
  +--> ?PR?PRINTF?PRINTF
  +--> ?PR?_INGRESADATO?PROG
  +--> ?PR?_ESCRIBIRMEMORIA?EEPROM
  +--> ?PR?_LEERMEMORIA?EEPROM

?PR?PROG_MSJ2?PROG                               -----    -----      -----    -----      003FH    003EH
  +--> ?CO?PROG
  +--> ?PR?PRINTF?PRINTF
  +--> ?PR?_INGRESADATO?PROG
  +--> ?PR?_ESCRIBIRMEMORIA?EEPROM
  +--> ?PR?_LEERMEMORIA?EEPROM

?PR?PROG_MSJ3?PROG                               -----    -----      -----    -----      003FH    003EH
  +--> ?CO?PROG
  +--> ?PR?PRINTF?PRINTF
  +--> ?PR?_INGRESADATO?PROG
  +--> ?PR?_ESCRIBIRMEMORIA?EEPROM
  +--> ?PR?_LEERMEMORIA?EEPROM

?PR?PROG_MSJ4?PROG                               -----    -----      -----    -----      003FH    003EH
  +--> ?CO?PROG
  +--> ?PR?PRINTF?PRINTF
  +--> ?PR?_INGRESADATO?PROG
  +--> ?PR?_ESCRIBIRMEMORIA?EEPROM
  +--> ?PR?_LEERMEMORIA?EEPROM

?PR?PROG_MSJ5?PROG                               -----    -----      -----    -----      003FH    003EH
  +--> ?CO?PROG
  +--> ?PR?PRINTF?PRINTF
  +--> ?PR?_INGRESADATO?PROG
  +--> ?PR?_ESCRIBIRMEMORIA?EEPROM
  +--> ?PR?_LEERMEMORIA?EEPROM

?PR?PROG_MSJ6?PROG                               -----    -----      -----    -----      003FH    003EH
  +--> ?CO?PROG
  +--> ?PR?PRINTF?PRINTF
  +--> ?PR?_INGRESADATO?PROG
  +--> ?PR?_ESCRIBIRMEMORIA?EEPROM
  +--> ?PR?_LEERMEMORIA?EEPROM

?PR?PROG_MSJ7?PROG                               -----    -----      -----    -----      003FH    003EH
BL51 BANKED LINKER/LOCATER V6.22.2.0                                                  10/29/2021  14:58:47  PAGE 11


  +--> ?CO?PROG
  +--> ?PR?PRINTF?PRINTF
  +--> ?PR?_INGRESADATO?PROG
  +--> ?PR?_ESCRIBIRMEMORIA?EEPROM
  +--> ?PR?_LEERMEMORIA?EEPROM

?PR?SHOW?PROG                                    -----    -----      -----    -----      -----    -----
  +--> ?CO?PROG
  +--> ?PR?PRINTF?PRINTF

?PR?VARIABLE_INICIO?MAIN                         -----    -----      -----    -----      -----    -----
  +--> ?PR?_RD_EEPROM?EEPROM

?PR?_RECIBE_CMD_MONITOR?MONITOR                  -----    -----      -----    -----      000EH    0006H
  +--> ?PR?RX_DATA?TIBBO

?PR?RX_DATA?TIBBO                                -----    -----      -----    -----      -----    -----
  +--> ?PR?TIME_MBIT?TIBBO
  +--> ?PR?TIME_BIT?TIBBO

?PR?DEBUG_DIVIDIR_TEXTO?TIBBO                    -----    -----      -----    -----      -----    -----
  +--> ?CO?TIBBO
  +--> ?PR?_DEBUG_TXT_TIBBO?TIBBO

?PR?_DEBUG_TXT_TIBBO?TIBBO                       -----    -----      -----    -----      004EH    0004H
  +--> ?PR?_TX_AUX?TIBBO

?PR?_VALIDA_TRAMA_MONITOR?MONITOR                -----    -----      -----    -----      000EH    0003H

?PR?_DEBUGBUFFERMF?TIBBO                         -----    -----      -----    -----      0048H    0006H
  +--> ?CO?TIBBO
  +--> ?PR?_DEBUG_TXT_TIBBO?TIBBO
  +--> ?PR?_DEBUG_CHR_TIBBO?TIBBO
  +--> ?PR?_TX_AUX?TIBBO

?PR?_DEBUG_CHR_TIBBO?TIBBO                       -----    -----      -----    -----      -----    -----
  +--> ?PR?_TX_AUX?TIBBO

?PR?LEE_TICKET?VERPRINT                          -----    -----      -----    -----      000EH    0011H
  +--> ?PR?VALIDASENSORESPASO?IO_SENSORES
  +--> ?CO?VERPRINT
  +--> ?PR?_DEBUG_TXT_TIBBO?TIBBO
  +--> ?PR?_PANTALLALCD?PANTALLAS
  +--> ?PR?_SEND_PORTERR?PTO_PARALELO
  +--> ?PR?_STRLEN?STRLEN
  +--> ?PR?CLEAR_BUFFER?UART
  +--> ?PR?_TRAMA_PRINT_COD_BARRAS?PTO_PARALELO
  +--> ?PR?_CMD_LPR_SALIDA_PRINT?MONITOR
  +--> ?PR?_NUM_NUM?VERPRINT
  +--> ?PR?_NUM_CHAR?VERPRINT
  +--> ?PR?_STRSTR?STRSTR
  +--> ?PR?_DEBUG_CHR_TIBBO?TIBBO
  +--> ?PR?_STRNCPY?STRNCPY
  +--> ?PR?_BCD_HEX?CLOCK
  +--> ?PR?_CHECK_FECHAOUT_2?VERPRINT
  +--> ?PR?_BLOQUE_HORARIO?VERPRINT

BL51 BANKED LINKER/LOCATER V6.22.2.0                                                  10/29/2021  14:58:47  PAGE 12


?PR?VALIDASENSORESPASO?IO_SENSORES               -----    -----      -----    -----      -----    -----
  +--> ?PR?SEL_SENSOR2?IO_SENSORES
  +--> ?PR?VALIDASENSOR?IO_SENSORES
  +--> ?PR?SEL_SENSOR1?IO_SENSORES
  +--> ?PR?SEL_AUTO?IO_SENSORES
  +--> ?CO?IO_SENSORES
  +--> ?PR?_DEBUG_TXT_TIBBO?TIBBO

?PR?_PANTALLALCD?PANTALLAS                       -----    -----      -----    -----      001FH    0028H
  +--> ?CO?PANTALLAS
  +--> ?PR?_RASPBERRY_DATA?PANTALLAS

?PR?_RASPBERRY_DATA?PANTALLAS                    -----    -----      -----    -----      0050H    0005H
  +--> ?PR?_STRLEN?STRLEN
  +--> ?PR?_PUTCHAR?MAIN

?PR?_SEND_PORTERR?PTO_PARALELO                   -----    -----      -----    -----      001FH    0006H
  +--> ?PR?PULSO_BUS?PTO_PARALELO
  +--> ?PR?_DELAY_20US?DELAY

?PR?PULSO_BUS?PTO_PARALELO                       -----    -----      -----    -----      -----    -----
  +--> ?PR?_DELAY_20US?DELAY

?PR?_TRAMA_PRINT_COD_BARRAS?PTO_PARALELO         -----    -----      -----    -----      001FH    0029H
  +--> ?PR?_STRLEN?STRLEN
  +--> ?PR?_STRNCAT?STRNCAT
  +--> ?CO?PTO_PARALELO
  +--> ?PR?_STRCAT?STRCAT
  +--> ?PR?_LEE_CLK?CLOCK
  +--> ?PR?_BCD_HEX?CLOCK
  +--> ?PR?_SEND_PORT?PTO_PARALELO
  +--> ?PR?DEBUG_DIVIDIR_TEXTO?TIBBO
  +--> ?PR?_DEBUGBUFFERMF?TIBBO

?PR?_STRNCAT?STRNCAT                             -----    -----      -----    -----      0048H    000AH

?PR?_LEE_CLK?CLOCK                               -----    -----      -----    -----      0049H    0003H
  +--> ?PR?_DELAY_20US?DELAY
  +--> ?PR?_EB_CLK?CLOCK
  +--> ?PR?P_CK?CLOCK

?PR?_EB_CLK?CLOCK                                -----    -----      -----    -----      004CH    0003H
  +--> ?PR?P_CK?CLOCK

?PR?P_CK?CLOCK                                   -----    -----      -----    -----      -----    -----
  +--> ?PR?DELAY?DELAY

?PR?_SEND_PORT?PTO_PARALELO                      -----    -----      -----    -----      0048H    000AH
  +--> ?PR?PULSO_BUS?PTO_PARALELO
  +--> ?PR?_DELAY_20US?DELAY

?PR?_CMD_LPR_SALIDA_PRINT?MONITOR                -----    -----      -----    -----      001FH    0027H
  +--> ?PR?DIR_BOARD?IO_SENSORES
  +--> ?PR?_STRCAT?STRCAT
  +--> ?PR?_STRLEN?STRLEN
  +--> ?PR?_BLOCK_READ_CLOCK_ASCII?CLOCK
  +--> ?PR?_MONITOR_CHR?MONITOR
BL51 BANKED LINKER/LOCATER V6.22.2.0                                                  10/29/2021  14:58:47  PAGE 13



?PR?DIR_BOARD?IO_SENSORES                        -----    -----      -----    -----      -----    -----
  +--> ?PR?SEL_DIR1?IO_SENSORES
  +--> ?PR?SEL_DIR2?IO_SENSORES

?PR?_BLOCK_READ_CLOCK_ASCII?CLOCK                -----    -----      -----    -----      0046H    0003H
  +--> ?PR?_LEE_CLK?CLOCK

?PR?_MONITOR_CHR?MONITOR                         -----    -----      -----    -----      0046H    0005H
  +--> ?PR?_TX_AUX?TIBBO

?PR?_STRSTR?STRSTR                               -----    -----      -----    -----      001FH    000CH

?PR?_STRNCPY?STRNCPY                             -----    -----      -----    -----      001FH    000AH

?PR?_CHECK_FECHAOUT_2?VERPRINT                   -----    -----      -----    -----      001FH    0012H
  +--> ?PR?_BLOCK_READ_CLOCK_HEX?CLOCK
  +--> ?CO?VERPRINT
  +--> ?PR?_DEBUG_TXT_TIBBO?TIBBO
  +--> ?PR?_DEBUG_CHR_TIBBO32?TIBBO

?PR?_BLOCK_READ_CLOCK_HEX?CLOCK                  -----    -----      -----    -----      0031H    0003H
  +--> ?PR?_LEE_CLK?CLOCK
  +--> ?PR?_BCD_HEX?CLOCK

?PR?_DEBUG_CHR_TIBBO32?TIBBO                     -----    -----      -----    -----      0031H    0005H
  +--> ?PR?_DEBUG_CHR_TIBBO?TIBBO

?PR?_BLOQUE_HORARIO?VERPRINT                     -----    -----      -----    -----      001FH    0006H
  +--> ?CO?VERPRINT
  +--> ?PR?_DEBUG_TXT_TIBBO?TIBBO
  +--> ?PR?_LEE_CLK?CLOCK
  +--> ?PR?_DEBUG_CHR_TIBBO?TIBBO
  +--> ?PR?_HEX_BCD?CLOCK

?PR?_RECIBE_PORT?PTO_PARALELO                    -----    -----      -----    -----      000EH    0007H
  +--> ?PR?OFF_TIMER0_INTERRUP?MAIN
  +--> ?PR?ON_TIMER0_INTERRUP?MAIN

?PR?_VALIDA_TRAMA_PTO?ACCESCAN                   -----    -----      -----    -----      000EH    000FH
  +--> ?PR?_BLOCK_WRITE_CLOCK_ASCII?CLOCK
  +--> ?PR?RELOJ_PANTALLA_LCD?PANTALLAS
  +--> ?PR?_PANTALLALCD?PANTALLAS
  +--> ?CO?ACCESCAN
  +--> ?PR?_DEBUG_TXT_TIBBO?TIBBO
  +--> ?PR?CONFIRMACION?EEPROM
  +--> ?PR?_PANTALLALCD_LINEA_2?PANTALLAS
  +--> ?PR?_SEND_PORTERR?PTO_PARALELO
  +--> ?PR?_BYTEHEX_DECIMAL?CLOCK
  +--> ?PR?_TWO_BYTEHEX_DECIMAL?CLOCK
  +--> ?PR?VALIDASENSORESPASO?IO_SENSORES
  +--> ?PR?_CMD_LPR_SALIDA_WIEGAND?MONITOR
  +--> ?PR?_GRABA_SERIE_ASCII_HEX?NUM_SERIE
  +--> ?PR?_DEBUGBUFFERMF?TIBBO

?PR?_BLOCK_WRITE_CLOCK_ASCII?CLOCK               -----    -----      -----    -----      001DH    0003H
  +--> ?PR?_TWO_ONE?CLOCK
BL51 BANKED LINKER/LOCATER V6.22.2.0                                                  10/29/2021  14:58:47  PAGE 14


  +--> ?PR?_WR_CLK?CLOCK

?PR?_WR_CLK?CLOCK                                -----    -----      -----    -----      0020H    0002H
  +--> ?PR?_DELAY_20US?DELAY
  +--> ?PR?_EB_CLK?CLOCK

?PR?RELOJ_PANTALLA_LCD?PANTALLAS                 -----    -----      -----    -----      001DH    000DH
  +--> ?CO?PANTALLAS
  +--> ?PR?_BLOCK_READ_CLOCK?CLOCK
  +--> ?PR?_LCD_TXT_NUM_CHAR?PANTALLAS

?PR?_BLOCK_READ_CLOCK?CLOCK                      -----    -----      -----    -----      002AH    0003H
  +--> ?PR?_LEE_CLK?CLOCK

?PR?_LCD_TXT_NUM_CHAR?PANTALLAS                  -----    -----      -----    -----      002AH    0006H
  +--> ?PR?_TX_CHRLCD?PANTALLAS

?PR?_TX_CHRLCD?PANTALLAS                         -----    -----      -----    -----      0055H    0002H
  +--> ?PR?_PUTCHAR?MAIN

?PR?CONFIRMACION?EEPROM                          -----    -----      -----    -----      001DH    000BH
  +--> ?PR?_BLOCK_READ_CLOCK_ASCII?CLOCK
  +--> ?PR?FORMATO_EEPROM?EEPROM

?PR?FORMATO_EEPROM?EEPROM                        -----    -----      -----    -----      0028H    0003H
  +--> ?PR?_WR_EEPROM?EEPROM

?PR?_PANTALLALCD_LINEA_2?PANTALLAS               -----    -----      -----    -----      001DH    0033H
  +--> ?CO?PANTALLAS
  +--> ?PR?_LCD_TXT?PANTALLAS
  +--> ?PR?_STRLEN?STRLEN
  +--> ?PR?_TX_CHRLCD?PANTALLAS
  +--> ?PR?_STRCAT?STRCAT
  +--> ?PR?_RASPBERRY_DATA?PANTALLAS

?PR?_LCD_TXT?PANTALLAS                           -----    -----      -----    -----      0050H    0005H
  +--> ?PR?_TX_CHRLCD?PANTALLAS

?PR?_BYTEHEX_DECIMAL?CLOCK                       -----    -----      -----    -----      001DH    0001H

?PR?_TWO_BYTEHEX_DECIMAL?CLOCK                   -----    -----      -----    -----      001DH    000CH
  +--> ?PR?_POW?POW

?PR?_POW?POW                                     -----    -----      -----    -----      0029H    000AH
  +--> ?PR?LOG?LOG
  +--> ?PR?EXP?EXP

?PR?LOG?LOG                                      0020H.0  0000H.1    -----    -----      0033H    0004H

?PR?_CMD_LPR_SALIDA_WIEGAND?MONITOR              -----    -----      -----    -----      001DH    0022H
  +--> ?PR?DIR_BOARD?IO_SENSORES
  +--> ?PR?_BLOCK_READ_CLOCK_ASCII?CLOCK
  +--> ?PR?_MONITOR_CHR?MONITOR

?PR?_GRABA_SERIE_ASCII_HEX?NUM_SERIE             -----    -----      -----    -----      -----    -----
  +--> ?PR?_ESCRIBIRMEMORIA?EEPROM

BL51 BANKED LINKER/LOCATER V6.22.2.0                                                  10/29/2021  14:58:47  PAGE 15


?PR?MSJ_LCD_INFORMATIVO?IO_SENSORES              -----    -----      -----    -----      000EH    0002H
  +--> ?PR?SEL_FUNCION?IO_SENSORES
  +--> ?PR?LOAD_AND_SEND_INFO_RELOJ?PTO_PARA...
  +--> ?PR?LOAD_AND_SEND_ID_COD?PTO_PARALELO
  +--> ?PR?_RD_EEPROM?EEPROM
  +--> ?PR?_SEND_PORTERR?PTO_PARALELO

?PR?LOAD_AND_SEND_INFO_RELOJ?PTO_PARA...         -----    -----      -----    -----      0010H    000BH
  +--> ?PR?_BLOCK_READ_CLOCK?CLOCK
  +--> ?PR?_LEE_CLK?CLOCK
  +--> ?PR?_SEND_PORT?PTO_PARALELO

?PR?LOAD_AND_SEND_ID_COD?PTO_PARALELO            -----    -----      -----    -----      0010H    0011H
  +--> ?CO?PTO_PARALELO
  +--> ?PR?PRINTF?PRINTF
  +--> ?PR?_SEND_PORT?PTO_PARALELO



SYMBOL TABLE OF MODULE:  .\Objects\VRFCDOR_PRINT_100 (MAIN)

  VALUE           TYPE          NAME
  ----------------------------------

  -------         MODULE        MAIN
  C:0000H         SYMBOL        _ICE_DUMMY_
  D:0080H         PUBLIC        P0
  D:0090H         PUBLIC        P1
  C:60DCH         PUBLIC        timer0_int
  D:00B0H         PUBLIC        P3
  X:013CH         PUBLIC        placa
  B:00A8H.7       PUBLIC        EA
  C:626AH         PUBLIC        off_Timer0_Interrup
  X:0145H         PUBLIC        ValTimeOutCom
  X:0146H         PUBLIC        Timer_wait
  X:0147H         PUBLIC        g_cContByteRx
  B:0080H.0       PUBLIC        rx_ip
  B:0080H.3       PUBLIC        Atascado
  C:4527H         PUBLIC        main
  C:4E80H         PUBLIC        variable_inicio
  B:0090H.7       PUBLIC        lock
  I:0022H         PUBLIC        rbuf
  C:6260H         PUBLIC        on_Timer0_Interrup
  I:00A2H         PUBLIC        tbuf
  B:0090H.1       PUBLIC        DataIn
  D:0089H         PUBLIC        TMOD
  X:0148H         PUBLIC        USE_LPR
  X:0149H         PUBLIC        Debug_Tibbo
  X:014AH         PUBLIC        Raspberry
  X:014BH         PUBLIC        QR_BARRAS
  X:014CH         PUBLIC        SIN_COBRO
  X:014EH         PUBLIC        Tipo_Vehiculo
  B:00B0H.3       PUBLIC        busy
  C:61A4H         PUBLIC        ini_timer
  B:00A8H.1       PUBLIC        ET0
  B:0088H.5       PUBLIC        TF0
  X:014FH         PUBLIC        COMPARACION_ACTIVA
BL51 BANKED LINKER/LOCATER V6.22.2.0                                                  10/29/2021  14:58:47  PAGE 16


  X:0150H         PUBLIC        g_cEstadoImpresion
  D:008CH         PUBLIC        TH0
  X:0151H         PUBLIC        ACK
  X:0152H         PUBLIC        g_cEstadoComSoft
  D:008AH         PUBLIC        TL0
  B:0088H.4       PUBLIC        TR0
  C:61B4H         PUBLIC        inicia_board
  X:0153H         PUBLIC        T_GRACIA
  X:0155H         PUBLIC        COD_PARK
  B:0080H.7       PUBLIC        sel_com
  X:0157H         PUBLIC        STX_LINTECH
  C:6201H         PUBLIC        _getkey
  X:0158H         PUBLIC        ETX
  X:0159H         PUBLIC        ID_CLIENTE
  X:015BH         PUBLIC        buffer_ready
  C:5CEBH         PUBLIC        _putchar
  B:0021H.1       PUBLIC        placa_ready
  -------         PROC          TIMER0_INT
  C:60DCH         LINE#         13
  C:60E2H         LINE#         16
  C:60E8H         LINE#         17
  C:60ECH         LINE#         18
  C:60EEH         LINE#         20
  -------         ENDPROC       TIMER0_INT
  -------         PROC          INI_TIMER
  C:61A4H         LINE#         23
  C:61A4H         LINE#         24
  C:61A4H         LINE#         26
  C:61ACH         LINE#         28
  C:61AFH         LINE#         29
  C:61B1H         LINE#         30
  C:61B3H         LINE#         32
  -------         ENDPROC       INI_TIMER
  -------         PROC          ON_TIMER0_INTERRUP
  C:6260H         LINE#         35
  C:6260H         LINE#         36
  C:6260H         LINE#         37
  C:6262H         LINE#         38
  C:6264H         LINE#         40
  -------         ENDPROC       ON_TIMER0_INTERRUP
  -------         PROC          OFF_TIMER0_INTERRUP
  C:626AH         LINE#         43
  C:626AH         LINE#         44
  C:626AH         LINE#         45
  C:626CH         LINE#         47
  -------         ENDPROC       OFF_TIMER0_INTERRUP
  -------         PROC          _GETKEY
  -------         DO            
  D:0006H         SYMBOL        k
  -------         ENDDO         
  C:6201H         LINE#         55
  C:6201H         LINE#         56
  C:6201H         LINE#         60
  C:6201H         LINE#         61
  C:6204H         LINE#         62
  C:6204H         LINE#         63
  C:620CH         LINE#         65
BL51 BANKED LINKER/LOCATER V6.22.2.0                                                  10/29/2021  14:58:47  PAGE 17


  C:620CH         LINE#         66
  -------         ENDPROC       _GETKEY
  -------         PROC          _PUTCHAR
  X:00B1H         SYMBOL        c
  -------         DO            
  X:00B2H         SYMBOL        i
  -------         ENDDO         
  C:5CEBH         LINE#         70
  C:5CF0H         LINE#         71
  C:5CF0H         LINE#         74
  C:5CFFH         LINE#         75
  C:5CFFH         LINE#         76
  C:5D15H         LINE#         77
  C:5D15H         LINE#         79
  C:5D23H         LINE#         80
  C:5D23H         LINE#         82
  C:5D28H         LINE#         83
  -------         ENDPROC       _PUTCHAR
  -------         PROC          INICIA_BOARD
  C:61B4H         LINE#         101
  C:61B4H         LINE#         102
  C:61B4H         LINE#         103
  C:61B7H         LINE#         104
  C:61BAH         LINE#         105
  C:61BDH         LINE#         106
  C:61BFH         LINE#         107
  C:61C1H         LINE#         108
  C:61C3H         LINE#         110
  -------         ENDPROC       INICIA_BOARD
  -------         PROC          VARIABLE_INICIO
  C:4E80H         LINE#         114
  C:4E80H         LINE#         115
  C:4E80H         LINE#         117
  C:4E90H         LINE#         118
  C:4EA1H         LINE#         119
  C:4EB2H         LINE#         120
  C:4EC3H         LINE#         121
  C:4ED1H         LINE#         122
  C:4EDFH         LINE#         123
  C:4EEDH         LINE#         124
  C:4EFBH         LINE#         125
  C:4F09H         LINE#         126
  -------         ENDPROC       VARIABLE_INICIO
  -------         PROC          MAIN
  -------         DO            
  X:0114H         SYMBOL        buffer
  X:0000H         SYMBOL        buffer1
  X:000DH         SYMBOL        Length_trama
  -------         ENDDO         
  C:4527H         LINE#         134
  C:4527H         LINE#         135
  C:4527H         LINE#         142
  C:452AH         LINE#         143
  C:452DH         LINE#         144
  C:4530H         LINE#         145
  C:4533H         LINE#         146
  C:4536H         LINE#         147
BL51 BANKED LINKER/LOCATER V6.22.2.0                                                  10/29/2021  14:58:47  PAGE 18


  C:4538H         LINE#         149
  C:453BH         LINE#         151
  C:453EH         LINE#         152
  C:4543H         LINE#         154
  C:4546H         LINE#         155
  C:4549H         LINE#         156
  C:4549H         LINE#         157
  C:454CH         LINE#         158
  C:454CH         LINE#         159
  C:454FH         LINE#         161
  C:4555H         LINE#         163
  C:4555H         LINE#         164
  C:4555H         LINE#         167
  C:4558H         LINE#         168
  C:4558H         LINE#         170
  C:4566H         LINE#         171
  C:4569H         LINE#         172
  C:4577H         LINE#         173
  C:458BH         LINE#         174
  C:4594H         LINE#         175
  C:4597H         LINE#         176
  C:4597H         LINE#         178
  C:459AH         LINE#         184
  C:459DH         LINE#         185
  C:459DH         LINE#         187
  C:45ACH         LINE#         191
  C:45BBH         LINE#         194
  C:45C3H         LINE#         195
  C:45CCH         LINE#         198
  C:45DAH         LINE#         200
  C:45DAH         LINE#         201
  C:45DDH         LINE#         204
  -------         ENDPROC       MAIN
  -------         ENDMOD        MAIN

  -------         MODULE        CLOCK
  C:0000H         SYMBOL        _ICE_DUMMY_
  C:5BA0H         PUBLIC        _two_one
  D:0090H         PUBLIC        P1
  C:5F1CH         PUBLIC        _wr_clk
  B:00D0H.7       PUBLIC        CY
  C:0003H         PUBLIC        p_ck
  X:0181H         PUBLIC        data_clk
  C:6229H         PUBLIC        cond_ini_clock
  C:422AH         PUBLIC        _Block_read_Clock
  B:0090H.4       PUBLIC        sck
  C:47FCH         PUBLIC        _Block_read_Clock_Hex
  C:2BE1H         PUBLIC        _Block_read_clock_ascii
  C:5FB0H         PUBLIC        _hex_bcd
  C:6050H         PUBLIC        _bcd_hex
  C:56A5H         PUBLIC        _ByteHex_Decimal
  C:4C4FH         PUBLIC        _lee_clk
  B:0090H.5       PUBLIC        io
  C:4D65H         PUBLIC        _Block_write_clock_ascii
  B:0090H.6       PUBLIC        rst
  C:5C2EH         PUBLIC        _eb_clk
  C:24E8H         PUBLIC        _Two_ByteHex_Decimal
BL51 BANKED LINKER/LOCATER V6.22.2.0                                                  10/29/2021  14:58:47  PAGE 19


  -------         PROC          P_CK
  C:0003H         LINE#         37
  C:0003H         LINE#         38
  C:0003H         LINE#         39
  C:0005H         LINE#         40
  C:0008H         LINE#         41
  C:000AH         LINE#         42
  -------         ENDPROC       P_CK
  -------         PROC          _EB_CLK
  X:004CH         SYMBOL        dir_clk
  -------         DO            
  X:004DH         SYMBOL        nbits
  -------         ENDDO         
  C:5C2EH         LINE#         44
  C:5C33H         LINE#         46
  C:5C38H         LINE#         47
  C:5C38H         LINE#         48
  C:5C41H         LINE#         49
  C:5C44H         LINE#         50
  C:5C44H         LINE#         51
  C:5C46H         LINE#         52
  C:5C48H         LINE#         54
  C:5C48H         LINE#         55
  C:5C4AH         LINE#         56
  C:5C4AH         LINE#         57
  C:5C4DH         LINE#         58
  C:5C6CH         LINE#         59
  -------         ENDPROC       _EB_CLK
  C:4C45H         SYMBOL        L?0053
  -------         PROC          L?0052
  -------         ENDPROC       L?0052
  C:4C45H         SYMBOL        L?0053
  -------         PROC          _LEE_CLK
  X:0049H         SYMBOL        dir_clk
  -------         DO            
  X:004AH         SYMBOL        nbits
  -------         ENDDO         
  C:4C4FH         LINE#         61
  C:4C54H         LINE#         63
  C:4C56H         LINE#         64
  C:4C5DH         LINE#         65
  C:4C65H         LINE#         66
  C:4C7EH         LINE#         67
  C:4C7EH         LINE#         68
  C:4C81H         LINE#         69
  C:4C81H         LINE#         70
  C:4C88H         LINE#         71
  C:4C92H         LINE#         72
  C:4C97H         LINE#         73
  C:4C97H         LINE#         74
  C:4C97H         LINE#         75
  C:4C9AH         LINE#         76
  C:4C9AH         LINE#         77
  C:4CA1H         LINE#         78
  C:4CB2H         LINE#         79
  C:4CB2H         LINE#         80
  C:4CBAH         LINE#         81
BL51 BANKED LINKER/LOCATER V6.22.2.0                                                  10/29/2021  14:58:47  PAGE 20


  C:4CBAH         LINE#         82
  C:4CBAH         LINE#         83
  C:4CBDH         LINE#         84
  C:4CCDH         LINE#         85
  C:4CCFH         LINE#         86
  C:4CD4H         LINE#         87
  -------         ENDPROC       _LEE_CLK
  -------         PROC          _WR_CLK
  X:0020H         SYMBOL        dir_clk
  X:0021H         SYMBOL        byte
  C:5F1CH         LINE#         89
  C:5F24H         LINE#         90
  C:5F26H         LINE#         91
  C:5F2DH         LINE#         92
  C:5F35H         LINE#         93
  C:5F3EH         LINE#         94
  C:5F41H         LINE#         95
  C:5F43H         LINE#         97
  -------         ENDPROC       _WR_CLK
  C:5B6CH         SYMBOL        L?0050
  C:5B8AH         SYMBOL        L?0051
  -------         PROC          L?0049
  -------         ENDPROC       L?0049
  C:5B6CH         SYMBOL        L?0050
  C:5B8AH         SYMBOL        L?0051
  -------         PROC          _TWO_ONE
  D:0007H         SYMBOL        byte_h
  D:0005H         SYMBOL        byte_l
  -------         DO            
  D:0007H         SYMBOL        byte_out
  -------         ENDDO         
  C:5BA0H         LINE#         99
  C:5BA0H         LINE#         100
  C:5BA0H         LINE#         102
  C:5BA3H         LINE#         103
  C:5BA7H         LINE#         104
  C:5BAAH         LINE#         105
  C:5BACH         LINE#         106
  C:5BACH         LINE#         107
  -------         ENDPROC       _TWO_ONE
  -------         PROC          _BLOCK_WRITE_CLOCK_ASCII
  X:001DH         SYMBOL        datos_clock
  C:4D65H         LINE#         112
  C:4D70H         LINE#         114
  C:4D70H         LINE#         118
  C:4D7AH         LINE#         119
  C:4D7AH         LINE#         120
  C:4D7AH         LINE#         121
  C:4D7AH         LINE#         123
  C:4D84H         LINE#         124
  C:4D8EH         LINE#         125
  C:4D98H         LINE#         126
  C:4D98H         LINE#         127
  C:4D98H         LINE#         128
  C:4D98H         LINE#         130
  C:4DA2H         LINE#         131
  C:4DA2H         LINE#         132
BL51 BANKED LINKER/LOCATER V6.22.2.0                                                  10/29/2021  14:58:47  PAGE 21


  C:4DA2H         LINE#         133
  C:4DA2H         LINE#         135
  C:4DACH         LINE#         136
  C:4DACH         LINE#         137
  C:4DACH         LINE#         138
  C:4DACH         LINE#         140
  C:4DB6H         LINE#         141
  C:4DB6H         LINE#         142
  C:4DB6H         LINE#         143
  C:4DB6H         LINE#         145
  C:4DC0H         LINE#         146
  C:4DCAH         LINE#         147
  C:4DD4H         LINE#         148
  C:4DDEH         LINE#         150
  -------         ENDPROC       _BLOCK_WRITE_CLOCK_ASCII
  -------         PROC          _BCD_HEX
  D:0007H         SYMBOL        l_data
  -------         DO            
  D:0006H         SYMBOL        temp
  D:0005H         SYMBOL        j
  -------         ENDDO         
  C:6050H         LINE#         156
  C:6050H         LINE#         157
  C:6050H         LINE#         159
  C:6052H         LINE#         160
  C:6056H         LINE#         161
  C:6059H         LINE#         162
  C:605BH         LINE#         163
  C:605BH         LINE#         164
  C:605FH         LINE#         165
  C:6066H         LINE#         166
  C:6066H         LINE#         167
  C:606AH         LINE#         168
  C:606DH         LINE#         169
  C:606DH         LINE#         170
  C:606DH         LINE#         171
  -------         ENDPROC       _BCD_HEX
  -------         PROC          _HEX_BCD
  D:0007H         SYMBOL        byte
  -------         DO            
  D:0006H         SYMBOL        nibble_h
  D:0005H         SYMBOL        nibble_l
  D:0004H         SYMBOL        k
  D:0007H         SYMBOL        byte_out
  -------         ENDDO         
  C:5FB0H         LINE#         175
  C:5FB0H         LINE#         177
  C:5FB0H         LINE#         182
  C:5FB2H         LINE#         183
  C:5FB3H         LINE#         185
  C:5FB9H         LINE#         186
  C:5FB9H         LINE#         187
  C:5FBAH         LINE#         188
  C:5FBFH         LINE#         189
  C:5FBFH         LINE#         190
  C:5FC0H         LINE#         191
  C:5FC1H         LINE#         192
BL51 BANKED LINKER/LOCATER V6.22.2.0                                                  10/29/2021  14:58:47  PAGE 22


  C:5FC1H         LINE#         193
  C:5FC4H         LINE#         194
  C:5FC8H         LINE#         195
  C:5FCBH         LINE#         196
  C:5FCEH         LINE#         197
  C:5FD0H         LINE#         198
  C:5FD0H         LINE#         200
  -------         ENDPROC       _HEX_BCD
  -------         PROC          _BYTEHEX_DECIMAL
  D:0001H         SYMBOL        buffer
  D:0005H         SYMBOL        valorhex
  -------         DO            
  X:001DH         SYMBOL        numero
  D:0007H         SYMBOL        centena
  D:0006H         SYMBOL        decena
  -------         ENDDO         
  C:56A5H         LINE#         207
  C:56A5H         LINE#         208
  C:56A5H         LINE#         211
  C:56A7H         LINE#         212
  C:56A8H         LINE#         213
  C:56ADH         LINE#         215
  C:56BAH         LINE#         216
  C:56BAH         LINE#         217
  C:56BEH         LINE#         218
  C:56BFH         LINE#         219
  C:56C1H         LINE#         220
  C:56C7H         LINE#         221
  C:56CEH         LINE#         222
  C:56DBH         LINE#         223
  C:56DBH         LINE#         224
  C:56DFH         LINE#         225
  C:56E0H         LINE#         226
  C:56E2H         LINE#         227
  C:56E8H         LINE#         228
  C:56EFH         LINE#         229
  -------         ENDPROC       _BYTEHEX_DECIMAL
  -------         PROC          _TWO_BYTEHEX_DECIMAL
  X:001DH         SYMBOL        buffer
  X:0020H         SYMBOL        id_h
  X:0021H         SYMBOL        id_l
  -------         DO            
  X:0022H         SYMBOL        valor
  D:0006H         SYMBOL        numero
  X:0024H         SYMBOL        temp
  X:0025H         SYMBOL        dmil
  X:0026H         SYMBOL        mil
  X:0027H         SYMBOL        centena
  X:0028H         SYMBOL        decena
  -------         ENDDO         
  C:24E8H         LINE#         237
  C:24F6H         LINE#         238
  C:24F6H         LINE#         242
  C:24FDH         LINE#         243
  C:2501H         LINE#         244
  C:2503H         LINE#         245
  C:2505H         LINE#         246
BL51 BANKED LINKER/LOCATER V6.22.2.0                                                  10/29/2021  14:58:47  PAGE 23


  C:2507H         LINE#         249
  C:250CH         LINE#         250
  C:250FH         LINE#         251
  C:2515H         LINE#         253
  C:2570H         LINE#         254
  C:2578H         LINE#         255
  C:257BH         LINE#         256
  C:25D6H         LINE#         258
  C:25DEH         LINE#         259
  C:25E1H         LINE#         260
  C:25E7H         LINE#         261
  C:2642H         LINE#         262
  C:264AH         LINE#         263
  C:264DH         LINE#         264
  C:26A8H         LINE#         265
  C:26A8H         LINE#         267
  C:26B1H         LINE#         268
  C:26B1H         LINE#         269
  C:26B9H         LINE#         270
  C:26BFH         LINE#         271
  C:26C1H         LINE#         272
  C:26D7H         LINE#         273
  C:26E1H         LINE#         274
  C:26EAH         LINE#         275
  C:26EAH         LINE#         276
  C:26F2H         LINE#         277
  C:26F8H         LINE#         278
  C:26FAH         LINE#         279
  C:2710H         LINE#         280
  C:271AH         LINE#         281
  C:2723H         LINE#         282
  C:2723H         LINE#         283
  C:272BH         LINE#         284
  C:2731H         LINE#         285
  C:2733H         LINE#         286
  C:2749H         LINE#         287
  C:2753H         LINE#         288
  C:275CH         LINE#         289
  C:275CH         LINE#         290
  C:2764H         LINE#         291
  C:276AH         LINE#         292
  C:276CH         LINE#         293
  C:2782H         LINE#         294
  C:278CH         LINE#         295
  C:279FH         LINE#         296
  C:27A9H         LINE#         297
  -------         ENDPROC       _TWO_BYTEHEX_DECIMAL
  -------         PROC          _BLOCK_READ_CLOCK_ASCII
  X:0046H         SYMBOL        datos_clock
  -------         DO            
  D:0007H         SYMBOL        dato
  -------         ENDDO         
  C:2BE1H         LINE#         303
  C:2BE4H         LINE#         304
  C:2BE4H         LINE#         310
  C:2BE7H         LINE#         311
  C:2BFFH         LINE#         312
BL51 BANKED LINKER/LOCATER V6.22.2.0                                                  10/29/2021  14:58:47  PAGE 24


  C:2C09H         LINE#         313
  C:2C1EH         LINE#         314
  C:2C28H         LINE#         317
  C:2C2DH         LINE#         318
  C:2C45H         LINE#         319
  C:2C4FH         LINE#         320
  C:2C64H         LINE#         321
  C:2C6EH         LINE#         324
  C:2C73H         LINE#         325
  C:2C8BH         LINE#         326
  C:2C95H         LINE#         327
  C:2CAAH         LINE#         328
  C:2CB4H         LINE#         332
  C:2CB9H         LINE#         333
  C:2CD1H         LINE#         334
  C:2CDBH         LINE#         335
  C:2CF0H         LINE#         336
  C:2CFAH         LINE#         339
  C:2CFFH         LINE#         340
  C:2D17H         LINE#         341
  C:2D21H         LINE#         342
  C:2D36H         LINE#         343
  C:2D40H         LINE#         346
  C:2D45H         LINE#         347
  C:2D5DH         LINE#         348
  C:2D67H         LINE#         349
  C:2D7CH         LINE#         350
  C:2D86H         LINE#         353
  C:2D8BH         LINE#         354
  C:2DA0H         LINE#         355
  C:2DAAH         LINE#         356
  -------         ENDPROC       _BLOCK_READ_CLOCK_ASCII
  -------         PROC          _BLOCK_READ_CLOCK_HEX
  X:0031H         SYMBOL        datos_clock
  C:47FCH         LINE#         360
  C:47FFH         LINE#         361
  C:47FFH         LINE#         364
  C:4814H         LINE#         365
  C:481EH         LINE#         367
  C:4835H         LINE#         368
  C:483FH         LINE#         370
  C:4856H         LINE#         371
  C:4860H         LINE#         373
  C:4877H         LINE#         374
  C:4881H         LINE#         376
  C:4898H         LINE#         377
  -------         ENDPROC       _BLOCK_READ_CLOCK_HEX
  -------         PROC          _BLOCK_READ_CLOCK
  X:002AH         SYMBOL        datos_clock
  C:422AH         LINE#         404
  C:422DH         LINE#         405
  C:422DH         LINE#         407
  C:423FH         LINE#         408
  C:4249H         LINE#         410
  C:425DH         LINE#         411
  C:4267H         LINE#         413
  C:427BH         LINE#         414
BL51 BANKED LINKER/LOCATER V6.22.2.0                                                  10/29/2021  14:58:47  PAGE 25


  C:4285H         LINE#         416
  C:4299H         LINE#         417
  C:42A3H         LINE#         419
  C:42B7H         LINE#         420
  C:42C1H         LINE#         422
  C:42D5H         LINE#         423
  C:42DFH         LINE#         424
  -------         ENDPROC       _BLOCK_READ_CLOCK
  -------         PROC          COND_INI_CLOCK
  C:6229H         LINE#         427
  C:6229H         LINE#         428
  C:6229H         LINE#         429
  C:622BH         LINE#         430
  C:622DH         LINE#         431
  C:622FH         LINE#         432
  -------         ENDPROC       COND_INI_CLOCK
  -------         ENDMOD        CLOCK

  -------         MODULE        DELAY
  C:0000H         SYMBOL        _ICE_DUMMY_
  C:6138H         PUBLIC        _Delay_20us
  C:608CH         PUBLIC        _Delay_1ms
  C:6270H         PUBLIC        Delay
  -------         PROC          _DELAY_20US
  D:0006H         SYMBOL        cnt
  -------         DO            
  D:0004H         SYMBOL        i
  -------         ENDDO         
  C:6138H         LINE#         20
  C:6138H         LINE#         21
  C:6138H         LINE#         24
  C:6142H         LINE#         26
  C:6149H         LINE#         27
  -------         ENDPROC       _DELAY_20US
  -------         PROC          _DELAY_1MS
  D:0002H         SYMBOL        cnt
  -------         DO            
  D:0082H         SYMBOL        i
  -------         ENDDO         
  C:608CH         LINE#         38
  C:6090H         LINE#         39
  C:6090H         LINE#         41
  C:60A6H         LINE#         42
  -------         ENDPROC       _DELAY_1MS
  -------         PROC          DELAY
  C:6270H         LINE#         60
  C:6270H         LINE#         62
  -------         ENDPROC       DELAY
  -------         ENDMOD        DELAY

  -------         MODULE        EEPROM
  C:0000H         SYMBOL        _ICE_DUMMY_
  C:5DA5H         PUBLIC        confirmacion
  D:0090H         PUBLIC        P1
  C:4F0AH         PUBLIC        _EscribirMemoria
  X:017BH         PUBLIC        l_chr
  C:5FD4H         PUBLIC        ackd
BL51 BANKED LINKER/LOCATER V6.22.2.0                                                  10/29/2021  14:58:47  PAGE 26


  B:0021H.2       PUBLIC        memory_flag
  B:00D0H.7       PUBLIC        CY
  C:625AH         PUBLIC        p_me
  C:6152H         PUBLIC        start
  B:0090H.2       PUBLIC        sda
  C:5FF4H         PUBLIC        ack_lect
  B:0090H.3       PUBLIC        scl
  C:5E58H         PUBLIC        _rd_eeprom
  C:6217H         PUBLIC        stop
  C:5CACH         PUBLIC        Formato_eeprom
  X:017CH         PUBLIC        l_data_eeprom
  C:5C6DH         PUBLIC        _wr_eeprom
  C:55F6H         PUBLIC        _LeerMemoria
  X:017DH         PUBLIC        byte_rd
  C:5F8EH         PUBLIC        _e_d_m
  C:56F8H         PUBLIC        l_d_m
  -------         PROC          L?0055
  -------         ENDPROC       L?0055
  -------         PROC          ACKD
  -------         DO            
  D:0006H         SYMBOL        i
  -------         ENDDO         
  C:5FD4H         LINE#         40
  C:5FD4H         LINE#         41
  C:5FD4H         LINE#         43
  C:5FD6H         LINE#         44
  C:5FD8H         LINE#         45
  C:5FDAH         LINE#         46
  C:5FDDH         LINE#         47
  C:5FDDH         LINE#         48
  C:5FE0H         LINE#         49
  C:5FE0H         LINE#         50
  C:5FE2H         LINE#         51
  C:5FE4H         LINE#         53
  C:5FE5H         LINE#         54
  C:5FE5H         LINE#         55
  C:5FF0H         LINE#         57
  C:5FF0H         LINE#         58
  C:5FF0H         LINE#         60
  C:5FF0H         LINE#         61
  -------         ENDPROC       ACKD
  -------         PROC          L?0057
  -------         ENDPROC       L?0057
  -------         PROC          ACK_LECT
  -------         DO            
  D:0006H         SYMBOL        i
  -------         ENDDO         
  C:5FF4H         LINE#         64
  C:5FF4H         LINE#         65
  C:5FF4H         LINE#         67
  C:5FF6H         LINE#         68
  C:5FF8H         LINE#         69
  C:5FFAH         LINE#         70
  C:5FFDH         LINE#         71
  C:5FFDH         LINE#         72
  C:6000H         LINE#         73
  C:6000H         LINE#         74
BL51 BANKED LINKER/LOCATER V6.22.2.0                                                  10/29/2021  14:58:47  PAGE 27


  C:6002H         LINE#         75
  C:6004H         LINE#         76
  C:6005H         LINE#         77
  C:6005H         LINE#         78
  C:6010H         LINE#         79
  -------         ENDPROC       ACK_LECT
  -------         PROC          P_ME
  C:625AH         LINE#         81
  C:625AH         LINE#         82
  C:625AH         LINE#         83
  C:625CH         LINE#         84
  C:625DH         LINE#         85
  C:625FH         LINE#         86
  -------         ENDPROC       P_ME
  -------         PROC          _E_D_M
  D:0007H         SYMBOL        a_serial_eeprom
  -------         DO            
  D:0006H         SYMBOL        nbits
  -------         ENDDO         
  C:5F8EH         LINE#         88
  C:5F8EH         LINE#         89
  C:5F8EH         LINE#         91
  C:5F9AH         LINE#         92
  C:5F9AH         LINE#         93
  C:5F9EH         LINE#         94
  C:5FA1H         LINE#         95
  C:5FA1H         LINE#         96
  C:5FA3H         LINE#         97
  C:5FA5H         LINE#         99
  C:5FA5H         LINE#         100
  C:5FA7H         LINE#         101
  C:5FA7H         LINE#         102
  C:5FA9H         LINE#         103
  C:5FACH         LINE#         104
  C:5FAFH         LINE#         106
  -------         ENDPROC       _E_D_M
  -------         PROC          L?0056
  -------         ENDPROC       L?0056
  -------         PROC          START
  C:6152H         LINE#         108
  C:6152H         LINE#         109
  C:6152H         LINE#         110
  C:6154H         LINE#         111
  C:6156H         LINE#         112
  C:6157H         LINE#         113
  C:6159H         LINE#         114
  C:615BH         LINE#         116
  -------         ENDPROC       START
  -------         PROC          STOP
  C:6217H         LINE#         118
  C:6217H         LINE#         119
  C:6217H         LINE#         120
  C:6219H         LINE#         121
  C:621BH         LINE#         122
  C:621DH         LINE#         123
  C:621FH         LINE#         125
  -------         ENDPROC       STOP
BL51 BANKED LINKER/LOCATER V6.22.2.0                                                  10/29/2021  14:58:47  PAGE 28


  -------         PROC          L_D_M
  -------         DO            
  D:0003H         SYMBOL        nbits
  -------         ENDDO         
  C:56F8H         LINE#         127
  C:56F8H         LINE#         128
  C:56F8H         LINE#         130
  C:5705H         LINE#         131
  C:5705H         LINE#         132
  C:5707H         LINE#         133
  C:570AH         LINE#         134
  C:570AH         LINE#         135
  C:5711H         LINE#         136
  C:571AH         LINE#         137
  C:571AH         LINE#         138
  C:571EH         LINE#         139
  C:5720H         LINE#         140
  C:5720H         LINE#         141
  C:5720H         LINE#         142
  C:5723H         LINE#         143
  C:5723H         LINE#         144
  C:572AH         LINE#         145
  C:5734H         LINE#         146
  C:5734H         LINE#         147
  C:5738H         LINE#         148
  C:573AH         LINE#         149
  C:573AH         LINE#         150
  C:573AH         LINE#         151
  C:573DH         LINE#         152
  C:573FH         LINE#         153
  C:5744H         LINE#         154
  -------         ENDPROC       L_D_M
  -------         PROC          _WR_EEPROM
  D:0002H         SYMBOL        control
  D:0004H         SYMBOL        Dir
  D:0003H         SYMBOL        data_eeprom
  -------         DO            
  D:0005H         SYMBOL        dir_h
  D:0001H         SYMBOL        dir_l
  -------         ENDDO         
  C:5C6DH         LINE#         160
  C:5C6FH         LINE#         161
  C:5C6FH         LINE#         163
  C:5C73H         LINE#         164
  C:5C73H         LINE#         165
  C:5C73H         LINE#         168
  C:5C73H         LINE#         169
  C:5C73H         LINE#         171
  C:5C76H         LINE#         172
  C:5C78H         LINE#         173
  C:5C7BH         LINE#         174
  C:5C7DH         LINE#         175
  C:5C80H         LINE#         176
  C:5C85H         LINE#         177
  C:5C88H         LINE#         178
  C:5C8DH         LINE#         179
  C:5C90H         LINE#         180
BL51 BANKED LINKER/LOCATER V6.22.2.0                                                  10/29/2021  14:58:47  PAGE 29


  C:5C93H         LINE#         181
  C:5C9AH         LINE#         183
  C:5C9CH         LINE#         184
  C:5C9EH         LINE#         185
  C:5CA5H         LINE#         186
  -------         ENDPROC       _WR_EEPROM
  -------         PROC          _RD_EEPROM
  D:0003H         SYMBOL        control
  D:0004H         SYMBOL        Dir
  -------         DO            
  D:0005H         SYMBOL        dir_h
  D:0002H         SYMBOL        dir_l
  -------         ENDDO         
  C:5E58H         LINE#         236
  C:5E5AH         LINE#         237
  C:5E5AH         LINE#         240
  C:5E5EH         LINE#         241
  C:5E5EH         LINE#         242
  C:5E5EH         LINE#         244
  C:5E5EH         LINE#         245
  C:5E5EH         LINE#         247
  C:5E61H         LINE#         248
  C:5E63H         LINE#         249
  C:5E66H         LINE#         250
  C:5E68H         LINE#         251
  C:5E6BH         LINE#         252
  C:5E70H         LINE#         253
  C:5E73H         LINE#         254
  C:5E76H         LINE#         255
  C:5E7CH         LINE#         256
  C:5E7FH         LINE#         257
  C:5E81H         LINE#         258
  C:5E84H         LINE#         259
  C:5E87H         LINE#         260
  C:5E89H         LINE#         261
  C:5E8BH         LINE#         262
  C:5E90H         LINE#         263
  -------         ENDPROC       _RD_EEPROM
  -------         PROC          _LEERMEMORIA
  X:007DH         SYMBOL        addres
  X:007FH         SYMBOL        res
  -------         DO            
  D:0007H         SYMBOL        i
  -------         ENDDO         
  C:55F6H         LINE#         268
  C:5607H         LINE#         269
  C:5607H         LINE#         274
  C:5607H         LINE#         275
  C:5623H         LINE#         276
  C:5632H         LINE#         277
  C:5640H         LINE#         278
  C:564AH         LINE#         279
  C:564AH         LINE#         280
  C:564DH         LINE#         282
  -------         ENDPROC       _LEERMEMORIA
  -------         PROC          _ESCRIBIRMEMORIA
  X:007DH         SYMBOL        control
BL51 BANKED LINKER/LOCATER V6.22.2.0                                                  10/29/2021  14:58:47  PAGE 30


  X:007EH         SYMBOL        addres
  X:0080H         SYMBOL        res
  C:4F0AH         LINE#         288
  C:4F1EH         LINE#         289
  C:4F1EH         LINE#         291
  C:4F2EH         LINE#         292
  C:4F2EH         LINE#         293
  C:4F31H         LINE#         294
  C:4F31H         LINE#         296
  C:4F35H         LINE#         297
  C:4F35H         LINE#         298
  C:4F50H         LINE#         299
  C:4F5EH         LINE#         300
  C:4F68H         LINE#         301
  C:4F6AH         LINE#         302
  C:4F79H         LINE#         303
  -------         ENDPROC       _ESCRIBIRMEMORIA
  -------         PROC          CONFIRMACION
  -------         DO            
  X:001DH         SYMBOL        hora
  D:0007H         SYMBOL        temp
  -------         ENDDO         
  C:5DA5H         LINE#         305
  C:5DA5H         LINE#         306
  C:5DA5H         LINE#         308
  C:5DA7H         LINE#         309
  C:5DB0H         LINE#         311
  C:5DB6H         LINE#         312
  C:5DBAH         LINE#         313
  C:5DBAH         LINE#         315
  C:5DBEH         LINE#         316
  C:5DC7H         LINE#         317
  C:5DC7H         LINE#         319
  C:5DCCH         LINE#         320
  C:5DCEH         LINE#         321
  C:5DCEH         LINE#         323
  C:5DD2H         LINE#         324
  C:5DDBH         LINE#         325
  C:5DDBH         LINE#         326
  C:5DDBH         LINE#         327
  C:5DDBH         LINE#         328
  C:5DDDH         LINE#         330
  C:5DDDH         LINE#         331
  C:5DE0H         LINE#         332
  C:5DE0H         LINE#         333
  C:5DE0H         LINE#         334
  C:5DE0H         LINE#         337
  -------         ENDPROC       CONFIRMACION
  -------         PROC          FORMATO_EEPROM
  -------         DO            
  X:0028H         SYMBOL        dato
  X:0029H         SYMBOL        i
  -------         ENDDO         
  C:5CACH         LINE#         338
  C:5CACH         LINE#         339
  C:5CACH         LINE#         340
  C:5CB2H         LINE#         343
BL51 BANKED LINKER/LOCATER V6.22.2.0                                                  10/29/2021  14:58:47  PAGE 31


  C:5CC7H         LINE#         344
  C:5CC7H         LINE#         345
  C:5CD1H         LINE#         346
  C:5CE1H         LINE#         347
  -------         ENDPROC       FORMATO_EEPROM
  -------         ENDMOD        EEPROM

  -------         MODULE        IO_SENSORES
  C:0000H         SYMBOL        _ICE_DUMMY_
  D:0090H         PUBLIC        P1
  D:00B0H         PUBLIC        P3
  C:615CH         PUBLIC        Dir_board
  B:0090H.1       PUBLIC        DataIn
  C:6237H         PUBLIC        sel_Auto
  C:5321H         PUBLIC        ValidaSensoresPaso
  B:00B0H.3       PUBLIC        busy
  C:6031H         PUBLIC        ValidaSensor
  C:6245H         PUBLIC        sel_Sensor1
  C:623EH         PUBLIC        sel_Sensor2
  B:00B0H.5       PUBLIC        sel_A
  B:00B0H.6       PUBLIC        sel_B
  B:00B0H.7       PUBLIC        sel_C
  C:52AEH         PUBLIC        msj_lcd_informativo
  C:624CH         PUBLIC        sel_Dir1
  C:6253H         PUBLIC        sel_Dir2
  C:6230H         PUBLIC        sel_Funcion
  -------         PROC          SEL_FUNCION
  C:6230H         LINE#         26
  C:6230H         LINE#         27
  C:6230H         LINE#         28
  C:6232H         LINE#         29
  C:6234H         LINE#         30
  C:6236H         LINE#         31
  -------         ENDPROC       SEL_FUNCION
  -------         PROC          SEL_AUTO
  C:6237H         LINE#         33
  C:6237H         LINE#         34
  C:6237H         LINE#         35
  C:6239H         LINE#         36
  C:623BH         LINE#         37
  C:623DH         LINE#         38
  -------         ENDPROC       SEL_AUTO
  -------         PROC          SEL_SENSOR2
  C:623EH         LINE#         49
  C:623EH         LINE#         50
  C:623EH         LINE#         51
  C:6240H         LINE#         52
  C:6242H         LINE#         53
  C:6244H         LINE#         54
  -------         ENDPROC       SEL_SENSOR2
  -------         PROC          SEL_SENSOR1
  C:6245H         LINE#         56
  C:6245H         LINE#         57
  C:6245H         LINE#         58
  C:6247H         LINE#         59
  C:6249H         LINE#         60
  C:624BH         LINE#         61
BL51 BANKED LINKER/LOCATER V6.22.2.0                                                  10/29/2021  14:58:47  PAGE 32


  -------         ENDPROC       SEL_SENSOR1
  -------         PROC          SEL_DIR1
  C:624CH         LINE#         63
  C:624CH         LINE#         64
  C:624CH         LINE#         65
  C:624EH         LINE#         66
  C:6250H         LINE#         67
  C:6252H         LINE#         68
  -------         ENDPROC       SEL_DIR1
  -------         PROC          SEL_DIR2
  C:6253H         LINE#         70
  C:6253H         LINE#         71
  C:6253H         LINE#         72
  C:6255H         LINE#         73
  C:6257H         LINE#         74
  C:6259H         LINE#         75
  -------         ENDPROC       SEL_DIR2
  -------         PROC          VALIDASENSOR
  -------         DO            
  D:0007H         SYMBOL        Valido
  D:0004H         SYMBOL        Tmin
  -------         ENDDO         
  C:6031H         LINE#         77
  C:6031H         LINE#         78
  C:6031H         LINE#         80
  C:6033H         LINE#         81
  C:6037H         LINE#         82
  C:6042H         LINE#         83
  C:6042H         LINE#         84
  C:6047H         LINE#         85
  C:604BH         LINE#         86
  C:604BH         LINE#         87
  C:604DH         LINE#         88
  C:604DH         LINE#         89
  C:604FH         LINE#         90
  C:604FH         LINE#         91
  -------         ENDPROC       VALIDASENSOR
  -------         PROC          DIR_BOARD
  -------         DO            
  D:0007H         SYMBOL        Board
  -------         ENDDO         
  C:615CH         LINE#         95
  C:615CH         LINE#         96
  C:615CH         LINE#         97
  C:615EH         LINE#         99
  C:6161H         LINE#         100
  C:6164H         LINE#         101
  C:6164H         LINE#         102
  C:6165H         LINE#         103
  C:6165H         LINE#         104
  C:6168H         LINE#         105
  C:616BH         LINE#         106
  C:616BH         LINE#         107
  C:616DH         LINE#         108
  C:616DH         LINE#         109
  C:616DH         LINE#         110
  -------         ENDPROC       DIR_BOARD
BL51 BANKED LINKER/LOCATER V6.22.2.0                                                  10/29/2021  14:58:47  PAGE 33


  -------         PROC          VALIDASENSORESPASO
  C:5321H         LINE#         115
  C:5321H         LINE#         116
  C:5321H         LINE#         118
  C:5324H         LINE#         119
  C:5327H         LINE#         120
  C:5327H         LINE#         121
  C:5335H         LINE#         122
  C:5335H         LINE#         123
  C:5338H         LINE#         124
  C:533BH         LINE#         125
  C:533EH         LINE#         126
  C:5343H         LINE#         127
  C:5343H         LINE#         128
  C:534AH         LINE#         129
  C:534EH         LINE#         130
  C:5350H         LINE#         132
  C:5350H         LINE#         134
  C:5350H         LINE#         135
  C:5357H         LINE#         136
  C:535CH         LINE#         137
  C:535EH         LINE#         138
  C:535EH         LINE#         141
  C:535EH         LINE#         143
  C:5361H         LINE#         144
  C:5366H         LINE#         145
  C:5366H         LINE#         147
  C:536DH         LINE#         148
  C:5373H         LINE#         149
  C:5376H         LINE#         150
  C:5376H         LINE#         152
  C:5376H         LINE#         153
  C:537AH         LINE#         154
  C:537CH         LINE#         155
  C:537CH         LINE#         158
  C:537CH         LINE#         159
  C:537CH         LINE#         161
  C:537CH         LINE#         162
  C:5382H         LINE#         163
  C:5384H         LINE#         164
  C:5384H         LINE#         165
  C:5384H         LINE#         166
  C:5384H         LINE#         167
  C:538DH         LINE#         168
  C:538FH         LINE#         169
  C:538FH         LINE#         171
  -------         ENDPROC       VALIDASENSORESPASO
  -------         PROC          MSJ_LCD_INFORMATIVO
  -------         DO            
  X:000EH         SYMBOL        toggle
  X:000FH         SYMBOL        info
  -------         ENDDO         
  C:52AEH         LINE#         180
  C:52AEH         LINE#         181
  C:52AEH         LINE#         185
  C:52B1H         LINE#         186
  C:52B4H         LINE#         187
BL51 BANKED LINKER/LOCATER V6.22.2.0                                                  10/29/2021  14:58:47  PAGE 34


  C:52B4H         LINE#         188
  C:52BEH         LINE#         189
  C:52BEH         LINE#         190
  C:52C1H         LINE#         191
  C:52C1H         LINE#         192
  C:52C3H         LINE#         193
  C:52C6H         LINE#         194
  C:52CCH         LINE#         195
  C:52CCH         LINE#         196
  C:52CEH         LINE#         197
  C:52DAH         LINE#         198
  C:52DAH         LINE#         199
  C:52DDH         LINE#         200
  C:52DDH         LINE#         201
  C:52DFH         LINE#         202
  C:52E2H         LINE#         203
  C:52E8H         LINE#         204
  C:52E8H         LINE#         205
  C:52EAH         LINE#         206
  C:52F6H         LINE#         207
  C:52F6H         LINE#         208
  C:52F9H         LINE#         209
  C:52F9H         LINE#         210
  C:52FBH         LINE#         211
  C:5307H         LINE#         212
  C:5307H         LINE#         213
  C:5309H         LINE#         214
  C:5310H         LINE#         216
  C:5315H         LINE#         217
  C:5315H         LINE#         219
  C:5315H         LINE#         221
  C:5315H         LINE#         223
  C:5318H         LINE#         224
  C:531BH         LINE#         225
  C:531BH         LINE#         226
  C:5320H         LINE#         227
  C:5320H         LINE#         229
  -------         ENDPROC       MSJ_LCD_INFORMATIVO
  -------         ENDMOD        IO_SENSORES

  -------         MODULE        MONITOR
  C:0000H         SYMBOL        _ICE_DUMMY_
  D:0080H         PUBLIC        P0
  D:0090H         PUBLIC        P1
  C:5BADH         PUBLIC        _Monitor_chr
  B:0080H.0       PUBLIC        rx_ip
  C:3D23H         PUBLIC        _Cmd_LPR_Salida_print
  B:0090H.7       PUBLIC        lock
  C:4BB0H         PUBLIC        _recibe_cmd_Monitor
  C:3FC9H         PUBLIC        _Cmd_LPR_Salida_wiegand
  C:49E4H         PUBLIC        _Valida_Trama_Monitor
  -------         PROC          _RECIBE_CMD_MONITOR
  X:000EH         SYMBOL        buffer
  -------         DO            
  X:0011H         SYMBOL        j
  X:0012H         SYMBOL        NumDatos
  D:0005H         SYMBOL        time_out
BL51 BANKED LINKER/LOCATER V6.22.2.0                                                  10/29/2021  14:58:47  PAGE 35


  X:0013H         SYMBOL        MaxChrRx
  D:0006H         SYMBOL        contador
  -------         ENDDO         
  C:4BB0H         LINE#         40
  C:4BBBH         LINE#         41
  C:4BBBH         LINE#         45
  C:4BC0H         LINE#         46
  C:4BC4H         LINE#         48
  C:4BCCH         LINE#         49
  C:4BCCH         LINE#         50
  C:4BDDH         LINE#         51
  C:4BDDH         LINE#         52
  C:4BE0H         LINE#         53
  C:4BE1H         LINE#         54
  C:4BE7H         LINE#         55
  C:4BE7H         LINE#         56
  C:4BECH         LINE#         57
  C:4BF5H         LINE#         58
  C:4BF5H         LINE#         59
  C:4BF7H         LINE#         60
  C:4BFFH         LINE#         61
  C:4BFFH         LINE#         62
  C:4C01H         LINE#         63
  C:4C06H         LINE#         65
  C:4C18H         LINE#         66
  C:4C22H         LINE#         67
  C:4C28H         LINE#         68
  C:4C30H         LINE#         70
  C:4C3FH         LINE#         71
  C:4C3FH         LINE#         72
  C:4C44H         LINE#         73
  -------         ENDPROC       _RECIBE_CMD_MONITOR
  -------         PROC          _VALIDA_TRAMA_MONITOR
  X:000EH         SYMBOL        buffer
  D:0005H         SYMBOL        length_trama
  -------         DO            
  D:0007H         SYMBOL        j
  D:0006H         SYMBOL        p
  -------         ENDDO         
  C:49E4H         LINE#         79
  C:49EFH         LINE#         80
  C:49EFH         LINE#         81
  C:49F1H         LINE#         82
  C:49F3H         LINE#         83
  C:49F3H         LINE#         84
  C:4A11H         LINE#         85
  C:4A11H         LINE#         86
  C:4A13H         LINE#         87
  C:4A18H         LINE#         88
  C:4A19H         LINE#         89
  C:4A2EH         LINE#         90
  C:4A2EH         LINE#         93
  C:4A2EH         LINE#         94
  C:4A4EH         LINE#         95
  C:4A4FH         LINE#         96
  C:4A50H         LINE#         97
  C:4A5CH         LINE#         98
BL51 BANKED LINKER/LOCATER V6.22.2.0                                                  10/29/2021  14:58:47  PAGE 36


  C:4A70H         LINE#         99
  C:4A7CH         LINE#         100
  C:4A7EH         LINE#         104
  C:4A7EH         LINE#         105
  C:4A7EH         LINE#         106
  C:4A7EH         LINE#         108
  C:4A7EH         LINE#         109
  -------         ENDPROC       _VALIDA_TRAMA_MONITOR
  -------         PROC          _MONITOR_CHR
  X:0046H         SYMBOL        str
  X:0049H         SYMBOL        num_char
  -------         DO            
  X:004AH         SYMBOL        j
  -------         ENDDO         
  C:5BADH         LINE#         156
  C:5BBBH         LINE#         157
  C:5BBBH         LINE#         159
  C:5BC9H         LINE#         160
  C:5BC9H         LINE#         161
  C:5BDBH         LINE#         162
  C:5BE5H         LINE#         163
  C:5BEDH         LINE#         164
  -------         ENDPROC       _MONITOR_CHR
  -------         PROC          _CMD_LPR_SALIDA_WIEGAND
  X:001DH         SYMBOL        buffer
  -------         DO            
  X:0020H         SYMBOL        Buffer_Lpr
  X:003EH         SYMBOL        j
  -------         ENDDO         
  C:3FC9H         LINE#         169
  C:3FD4H         LINE#         170
  C:3FD4H         LINE#         172
  C:3FDAH         LINE#         173
  C:3FDFH         LINE#         174
  C:3FE7H         LINE#         175
  C:3FEBH         LINE#         176
  C:3FF4H         LINE#         177
  C:3FF4H         LINE#         178
  C:4005H         LINE#         179
  C:4007H         LINE#         181
  C:4007H         LINE#         182
  C:4018H         LINE#         183
  C:4018H         LINE#         187
  C:402FH         LINE#         188
  C:402FH         LINE#         189
  C:403EH         LINE#         190
  C:4048H         LINE#         192
  C:4050H         LINE#         193
  C:4064H         LINE#         195
  C:4074H         LINE#         196
  C:4085H         LINE#         197
  C:4092H         LINE#         201
  -------         ENDPROC       _CMD_LPR_SALIDA_WIEGAND
  -------         PROC          _CMD_LPR_SALIDA_PRINT
  X:001FH         SYMBOL        msj
  X:0022H         SYMBOL        vehiculo
  -------         DO            
BL51 BANKED LINKER/LOCATER V6.22.2.0                                                  10/29/2021  14:58:47  PAGE 37


  X:0023H         SYMBOL        Buffer_Lpr
  X:0041H         SYMBOL        j
  X:0042H         SYMBOL        temp
  -------         ENDDO         
  C:3D23H         LINE#         270
  C:3D31H         LINE#         271
  C:3D31H         LINE#         276
  C:3D35H         LINE#         277
  C:3D3DH         LINE#         278
  C:3D41H         LINE#         279
  C:3D44H         LINE#         280
  C:3D4CH         LINE#         281
  C:3D4FH         LINE#         282
  C:3D65H         LINE#         283
  C:3D83H         LINE#         284
  C:3D89H         LINE#         285
  C:3D8CH         LINE#         286
  C:3DA2H         LINE#         287
  C:3DB0H         LINE#         289
  C:3DBCH         LINE#         292
  C:3DCDH         LINE#         293
  C:3DDAH         LINE#         294
  C:3DE6H         LINE#         295
  C:3DF2H         LINE#         297
  C:3E01H         LINE#         299
  -------         ENDPROC       _CMD_LPR_SALIDA_PRINT
  -------         ENDMOD        MONITOR

  -------         MODULE        NUM_SERIE
  C:0000H         SYMBOL        _ICE_DUMMY_
  C:61C4H         PUBLIC        _graba_serie_ascii_hex
  -------         PROC          _GRABA_SERIE_ASCII_HEX
  D:0001H         SYMBOL        buffer
  C:61C4H         LINE#         18
  C:61C4H         LINE#         19
  C:61C4H         LINE#         22
  C:61CBH         LINE#         23
  -------         ENDPROC       _GRABA_SERIE_ASCII_HEX
  -------         ENDMOD        NUM_SERIE

  -------         MODULE        PANTALLAS
  C:0000H         SYMBOL        _ICE_DUMMY_
  D:0080H         PUBLIC        P0
  C:5E91H         PUBLIC        Reloj_Pantalla_Lcd
  C:48A2H         PUBLIC        _PantallaLCD
  C:5DE1H         PUBLIC        _LCD_txt
  C:55A1H         PUBLIC        _Raspberry_data
  C:606EH         PUBLIC        _tx_chrlcd
  C:34FBH         SYMBOL        _?ix1000
  C:3508H         SYMBOL        _?ix1001
  C:5AE1H         PUBLIC        _LCD_txt_num_char
  C:31A5H         PUBLIC        _PantallaLCD_LINEA_2
  B:0098H.4       PUBLIC        REN
  B:0080H.7       PUBLIC        sel_com
  -------         PROC          _TX_CHRLCD
  D:0007H         SYMBOL        data_com
  X:0055H         SYMBOL        enable_char_add
BL51 BANKED LINKER/LOCATER V6.22.2.0                                                  10/29/2021  14:58:47  PAGE 38


  -------         DO            
  X:0056H         SYMBOL        d
  -------         ENDDO         
  C:606EH         LINE#         59
  C:6073H         LINE#         60
  C:6073H         LINE#         63
  C:607BH         LINE#         64
  C:6081H         LINE#         65
  C:608BH         LINE#         68
  -------         ENDPROC       _TX_CHRLCD
  -------         PROC          _LCD_TXT
  X:0050H         SYMBOL        msg
  X:0053H         SYMBOL        enable_char_add
  -------         DO            
  X:0054H         SYMBOL        i
  -------         ENDDO         
  C:5DE1H         LINE#         74
  C:5DEFH         LINE#         75
  C:5DEFH         LINE#         78
  C:5E0CH         LINE#         79
  C:5E0CH         LINE#         80
  C:5E14H         LINE#         81
  C:5E1CH         LINE#         82
  -------         ENDPROC       _LCD_TXT
  -------         PROC          _LCD_TXT_NUM_CHAR
  X:002AH         SYMBOL        msg
  X:002DH         SYMBOL        length_char
  X:002EH         SYMBOL        enable_char_add
  -------         DO            
  X:002FH         SYMBOL        i
  -------         ENDDO         
  C:5AE1H         LINE#         89
  C:5AEFH         LINE#         90
  C:5AEFH         LINE#         93
  C:5B02H         LINE#         94
  C:5B02H         LINE#         95
  C:5B1EH         LINE#         96
  C:5B26H         LINE#         97
  -------         ENDPROC       _LCD_TXT_NUM_CHAR
  -------         PROC          RELOJ_PANTALLA_LCD
  -------         DO            
  X:001DH         SYMBOL        Ini_Clock_LCD
  -------         ENDDO         
  C:5E91H         LINE#         104
  C:5E91H         LINE#         105
  C:5E91H         LINE#         107
  C:5EA4H         LINE#         108
  C:5EA6H         LINE#         109
  C:5EAFH         LINE#         113
  C:5EB1H         LINE#         114
  C:5EC1H         LINE#         116
  C:5EC3H         LINE#         117
  C:5EC5H         LINE#         118
  -------         ENDPROC       RELOJ_PANTALLA_LCD
  -------         PROC          L?0048
  -------         ENDPROC       L?0048
  -------         PROC          _RASPBERRY_DATA
BL51 BANKED LINKER/LOCATER V6.22.2.0                                                  10/29/2021  14:58:47  PAGE 39


  X:0050H         SYMBOL        msjpantalla
  -------         DO            
  X:0053H         SYMBOL        i
  X:0054H         SYMBOL        lenth_cadena
  D:0007H         SYMBOL        d
  -------         ENDDO         
  C:55A1H         LINE#         119
  C:55ACH         LINE#         120
  C:55ACH         LINE#         127
  C:55B4H         LINE#         129
  C:55C7H         LINE#         130
  C:55C7H         LINE#         133
  C:55DEH         LINE#         134
  C:55EAH         LINE#         135
  C:55EAH         LINE#         136
  C:55EDH         LINE#         138
  C:55F5H         LINE#         142
  -------         ENDPROC       _RASPBERRY_DATA
  -------         PROC          _PANTALLALCD
  D:0007H         SYMBOL        cod_msg
  -------         DO            
  X:001FH         SYMBOL        datos
  -------         ENDDO         
  C:48A2H         LINE#         150
  C:48A2H         LINE#         151
  C:48A2H         LINE#         161
  C:48A4H         LINE#         163
  C:48AAH         LINE#         164
  C:48AAH         LINE#         168
  C:48AAH         LINE#         169
  C:48AAH         LINE#         281
  C:48AAH         LINE#         282
  C:48ACH         LINE#         283
  C:48ADH         LINE#         285
  C:48ADH         LINE#         286
  C:48AFH         LINE#         287
  C:48CFH         LINE#         288
  C:48CFH         LINE#         289
  C:48CFH         LINE#         290
  C:48DBH         LINE#         291
  C:48DBH         LINE#         292
  C:48DDH         LINE#         293
  C:48DDH         LINE#         294
  C:48E9H         LINE#         295
  C:48E9H         LINE#         296
  C:48EBH         LINE#         297
  C:48EBH         LINE#         298
  C:48F7H         LINE#         299
  C:48F7H         LINE#         300
  C:48F9H         LINE#         301
  C:48F9H         LINE#         302
  C:4905H         LINE#         303
  C:4908H         LINE#         305
  C:4908H         LINE#         306
  C:4914H         LINE#         307
  C:4914H         LINE#         308
  C:4916H         LINE#         309
BL51 BANKED LINKER/LOCATER V6.22.2.0                                                  10/29/2021  14:58:47  PAGE 40


  C:4916H         LINE#         310
  C:4922H         LINE#         311
  C:4922H         LINE#         312
  C:4924H         LINE#         314
  C:4924H         LINE#         315
  C:4930H         LINE#         316
  C:4930H         LINE#         317
  C:4932H         LINE#         318
  C:4932H         LINE#         319
  C:493EH         LINE#         320
  C:4941H         LINE#         322
  C:4941H         LINE#         323
  C:4941H         LINE#         324
  C:4941H         LINE#         326
  C:4941H         LINE#         327
  C:4943H         LINE#         328
  C:4943H         LINE#         329
  -------         ENDPROC       _PANTALLALCD
  -------         PROC          _PANTALLALCD_LINEA_2
  X:001DH         SYMBOL        cod_msg
  X:001EH         SYMBOL        buffer
  -------         DO            
  X:0021H         SYMBOL        Ini_LCD_Line_one
  X:0027H         SYMBOL        datos
  X:004FH         SYMBOL        num_chr
  -------         ENDDO         
  C:31A5H         LINE#         330
  C:31B3H         LINE#         331
  C:31B3H         LINE#         333
  C:31C6H         LINE#         338
  C:31C8H         LINE#         340
  C:31CEH         LINE#         341
  C:31CEH         LINE#         344
  C:31D6H         LINE#         345
  C:31D6H         LINE#         347
  C:31D6H         LINE#         348
  C:31E1H         LINE#         349
  C:31EFH         LINE#         350
  C:3204H         LINE#         351
  C:320AH         LINE#         352
  C:3216H         LINE#         353
  C:3221H         LINE#         354
  C:3231H         LINE#         359
  C:3231H         LINE#         362
  C:3231H         LINE#         363
  C:3233H         LINE#         364
  C:3234H         LINE#         366
  C:3234H         LINE#         367
  C:3236H         LINE#         369
  C:3245H         LINE#         370
  C:3245H         LINE#         371
  C:3245H         LINE#         372
  C:3254H         LINE#         373
  C:3267H         LINE#         374
  C:3281H         LINE#         375
  C:3281H         LINE#         376
  C:3281H         LINE#         377
BL51 BANKED LINKER/LOCATER V6.22.2.0                                                  10/29/2021  14:58:47  PAGE 41


  C:3281H         LINE#         379
  C:3283H         LINE#         380
  C:3283H         LINE#         383
  C:3292H         LINE#         385
  C:32B0H         LINE#         387
  C:32C7H         LINE#         390
  C:32D0H         LINE#         393
  C:32D0H         LINE#         395
  C:32D0H         LINE#         396
  C:32D2H         LINE#         397
  C:32D2H         LINE#         398
  -------         ENDPROC       _PANTALLALCD_LINEA_2
  -------         ENDMOD        PANTALLAS

  -------         MODULE        PROG
  C:0000H         SYMBOL        _ICE_DUMMY_
  C:3067H         PUBLIC        Prog_Sin_Cobro
  C:3837H         PUBLIC        Prog_debug
  C:5862H         PUBLIC        Prog_Direccion
  C:581BH         PUBLIC        Prog_Nom_Parq
  C:4CE8H         PUBLIC        _GetOption
  X:00B5H         PUBLIC        validacion
  X:00BEH         PUBLIC        cursor
  C:409FH         PUBLIC        Show
  C:57D4H         PUBLIC        Prog_Nit
  C:3B2BH         PUBLIC        Prog_Comparacion_Activa
  C:45E0H         PUBLIC        prog_id_cliente
  C:5B32H         PUBLIC        _ValidarClave
  C:27B8H         PUBLIC        menu
  C:3933H         PUBLIC        Prog_Use_Lpr
  C:5536H         PUBLIC        _ListaComandos
  C:0D4EH         SYMBOL        _?ix1000
  C:578DH         PUBLIC        Prog_Cliente
  C:0D52H         SYMBOL        _?ix1001
  C:0D56H         SYMBOL        _?ix1002
  C:58A9H         PUBLIC        Prog_Msj1
  C:58F0H         PUBLIC        Prog_Msj2
  C:446AH         PUBLIC        Prog_tiempo_gracia
  C:5236H         PUBLIC        _IngresaDato
  C:5937H         PUBLIC        Prog_Msj3
  X:00D2H         PUBLIC        comandos
  C:597EH         PUBLIC        Prog_Msj4
  C:59C5H         PUBLIC        Prog_Msj5
  C:5A0CH         PUBLIC        Prog_Msj6
  C:5A53H         PUBLIC        Prog_Msj7
  C:610DH         PUBLIC        DisplayCursor
  C:43ADH         PUBLIC        prog_cod_park
  C:3A2FH         PUBLIC        tipo_pantalla
  C:5BF4H         PUBLIC        _GetCMD
  C:3C27H         PUBLIC        Prog_QR_barras
  -------         PROC          _LISTACOMANDOS
  X:003FH         SYMBOL        cmd
  -------         DO            
  X:0042H         SYMBOL        buf
  X:0045H         SYMBOL        i
  -------         ENDDO         
  C:5536H         LINE#         83
BL51 BANKED LINKER/LOCATER V6.22.2.0                                                  10/29/2021  14:58:47  PAGE 42


  C:5541H         LINE#         84
  C:5541H         LINE#         88
  C:5554H         LINE#         89
  C:5554H         LINE#         90
  C:556CH         LINE#         91
  C:5587H         LINE#         92
  C:558DH         LINE#         93
  C:5595H         LINE#         95
  C:5597H         LINE#         96
  -------         ENDPROC       _LISTACOMANDOS
  -------         PROC          L?0143
  -------         ENDPROC       L?0143
  -------         PROC          _VALIDARCLAVE
  X:003FH         SYMBOL        buffer
  -------         DO            
  X:0042H         SYMBOL        buf
  -------         ENDDO         
  C:5B32H         LINE#         102
  C:5B3DH         LINE#         103
  C:5B3DH         LINE#         106
  C:5B4CH         LINE#         107
  C:5B67H         LINE#         108
  C:5B69H         LINE#         111
  C:5B6BH         LINE#         112
  -------         ENDPROC       _VALIDARCLAVE
  C:5BEEH         SYMBOL        L?0142
  -------         PROC          L?0141
  -------         ENDPROC       L?0141
  C:5BEEH         SYMBOL        L?0142
  -------         PROC          _GETCMD
  X:003FH         SYMBOL        in
  -------         DO            
  X:0042H         SYMBOL        tokens
  -------         ENDDO         
  C:5BF4H         LINE#         119
  C:5BFFH         LINE#         120
  C:5BFFH         LINE#         121
  C:5C12H         LINE#         122
  -------         ENDPROC       _GETCMD
  -------         PROC          L?0140
  -------         ENDPROC       L?0140
  -------         PROC          _GETOPTION
  X:003FH         SYMBOL        in
  -------         DO            
  X:0042H         SYMBOL        tokensSpace
  X:0046H         SYMBOL        tokensQuote
  -------         ENDDO         
  C:4CE8H         LINE#         128
  C:4CF3H         LINE#         129
  C:4CF3H         LINE#         130
  C:4D06H         LINE#         131
  C:4D19H         LINE#         134
  C:4D2BH         LINE#         135
  C:4D37H         LINE#         138
  C:4D3EH         LINE#         139
  C:4D4BH         LINE#         141
  C:4D64H         LINE#         142
BL51 BANKED LINKER/LOCATER V6.22.2.0                                                  10/29/2021  14:58:47  PAGE 43


  -------         ENDPROC       _GETOPTION
  -------         PROC          DISPLAYCURSOR
  C:610DH         LINE#         147
  C:610DH         LINE#         148
  C:610DH         LINE#         149
  -------         ENDPROC       DISPLAYCURSOR
  C:5232H         SYMBOL        L?0139
  -------         PROC          L?0138
  -------         ENDPROC       L?0138
  C:5232H         SYMBOL        L?0139
  -------         PROC          _INGRESADATO
  X:007DH         SYMBOL        buffer
  X:0080H         SYMBOL        modo
  -------         DO            
  D:0006H         SYMBOL        i
  -------         ENDDO         
  C:5236H         LINE#         156
  C:5244H         LINE#         157
  C:5244H         LINE#         162
  C:5244H         LINE#         163
  C:5256H         LINE#         164
  C:525CH         LINE#         165
  C:525CH         LINE#         166
  C:5277H         LINE#         167
  C:5279H         LINE#         169
  C:5279H         LINE#         170
  C:527EH         LINE#         171
  C:527EH         LINE#         172
  C:528FH         LINE#         173
  C:5299H         LINE#         174
  C:52A8H         LINE#         176
  C:52ADH         LINE#         180
  -------         ENDPROC       _INGRESADATO
  -------         PROC          PROG_ID_CLIENTE
  -------         DO            
  X:003FH         SYMBOL        buffer
  X:0049H         SYMBOL        dataee
  -------         ENDDO         
  C:45E0H         LINE#         185
  C:45E0H         LINE#         186
  C:45E0H         LINE#         190
  C:45F2H         LINE#         191
  C:460FH         LINE#         193
  C:4626H         LINE#         195
  C:462FH         LINE#         196
  C:4636H         LINE#         197
  C:4647H         LINE#         198
  C:4650H         LINE#         200
  C:4662H         LINE#         201
  C:467FH         LINE#         202
  -------         ENDPROC       PROG_ID_CLIENTE
  -------         PROC          PROG_COD_PARK
  -------         DO            
  X:003FH         SYMBOL        buffer
  X:0049H         SYMBOL        dataee
  -------         ENDDO         
  C:43ADH         LINE#         207
BL51 BANKED LINKER/LOCATER V6.22.2.0                                                  10/29/2021  14:58:47  PAGE 44


  C:43ADH         LINE#         208
  C:43ADH         LINE#         212
  C:43C0H         LINE#         213
  C:43DDH         LINE#         215
  C:43F4H         LINE#         217
  C:43FDH         LINE#         218
  C:4408H         LINE#         219
  C:4419H         LINE#         220
  C:4423H         LINE#         222
  C:4436H         LINE#         223
  C:4453H         LINE#         224
  -------         ENDPROC       PROG_COD_PARK
  -------         PROC          PROG_TIEMPO_GRACIA
  -------         DO            
  X:003FH         SYMBOL        buffer
  X:0049H         SYMBOL        dataee
  -------         ENDDO         
  C:446AH         LINE#         229
  C:446AH         LINE#         230
  C:446AH         LINE#         234
  C:447DH         LINE#         235
  C:449AH         LINE#         237
  C:44B1H         LINE#         239
  C:44BAH         LINE#         240
  C:44C5H         LINE#         241
  C:44D6H         LINE#         242
  C:44E0H         LINE#         244
  C:44F3H         LINE#         245
  C:4510H         LINE#         246
  -------         ENDPROC       PROG_TIEMPO_GRACIA
  -------         PROC          PROG_SIN_COBRO
  -------         DO            
  X:003FH         SYMBOL        buffer
  X:0049H         SYMBOL        dataee
  -------         ENDDO         
  C:3067H         LINE#         252
  C:3067H         LINE#         253
  C:3067H         LINE#         259
  C:307AH         LINE#         260
  C:3097H         LINE#         261
  C:30A1H         LINE#         262
  C:30A1H         LINE#         263
  C:30B4H         LINE#         264
  C:30B6H         LINE#         265
  C:30C2H         LINE#         266
  C:30C2H         LINE#         267
  C:30D5H         LINE#         268
  C:30D7H         LINE#         270
  C:30D7H         LINE#         271
  C:30EEH         LINE#         272
  C:30EEH         LINE#         274
  C:30F7H         LINE#         275
  C:3102H         LINE#         276
  C:3113H         LINE#         277
  C:311DH         LINE#         279
  C:3130H         LINE#         280
  C:314DH         LINE#         281
BL51 BANKED LINKER/LOCATER V6.22.2.0                                                  10/29/2021  14:58:47  PAGE 45


  C:3157H         LINE#         282
  C:3157H         LINE#         283
  C:316AH         LINE#         284
  C:316CH         LINE#         285
  C:3178H         LINE#         286
  C:3178H         LINE#         287
  C:318BH         LINE#         288
  C:318DH         LINE#         290
  C:318DH         LINE#         291
  C:31A4H         LINE#         292
  C:31A4H         LINE#         294
  -------         ENDPROC       PROG_SIN_COBRO
  -------         PROC          PROG_DEBUG
  -------         DO            
  X:003FH         SYMBOL        buffer
  X:0049H         SYMBOL        dataee
  -------         ENDDO         
  C:3837H         LINE#         298
  C:3837H         LINE#         299
  C:3837H         LINE#         304
  C:384AH         LINE#         305
  C:3867H         LINE#         306
  C:3871H         LINE#         307
  C:3871H         LINE#         308
  C:3884H         LINE#         309
  C:3886H         LINE#         311
  C:3886H         LINE#         312
  C:389DH         LINE#         313
  C:389DH         LINE#         315
  C:38A6H         LINE#         316
  C:38B1H         LINE#         317
  C:38C2H         LINE#         318
  C:38CCH         LINE#         320
  C:38DFH         LINE#         321
  C:38FCH         LINE#         322
  C:3906H         LINE#         323
  C:3906H         LINE#         324
  C:3919H         LINE#         325
  C:391BH         LINE#         327
  C:391BH         LINE#         328
  C:3932H         LINE#         329
  C:3932H         LINE#         330
  -------         ENDPROC       PROG_DEBUG
  -------         PROC          PROG_USE_LPR
  -------         DO            
  X:003FH         SYMBOL        buffer
  X:0049H         SYMBOL        dataee
  -------         ENDDO         
  C:3933H         LINE#         334
  C:3933H         LINE#         335
  C:3933H         LINE#         340
  C:3946H         LINE#         341
  C:3963H         LINE#         342
  C:396DH         LINE#         343
  C:396DH         LINE#         344
  C:3980H         LINE#         345
  C:3982H         LINE#         347
BL51 BANKED LINKER/LOCATER V6.22.2.0                                                  10/29/2021  14:58:47  PAGE 46


  C:3982H         LINE#         348
  C:3999H         LINE#         349
  C:3999H         LINE#         351
  C:39A2H         LINE#         352
  C:39ADH         LINE#         353
  C:39BEH         LINE#         354
  C:39C8H         LINE#         356
  C:39DBH         LINE#         357
  C:39F8H         LINE#         358
  C:3A02H         LINE#         359
  C:3A02H         LINE#         360
  C:3A15H         LINE#         361
  C:3A17H         LINE#         363
  C:3A17H         LINE#         364
  C:3A2EH         LINE#         365
  C:3A2EH         LINE#         366
  -------         ENDPROC       PROG_USE_LPR
  -------         PROC          TIPO_PANTALLA
  -------         DO            
  X:003FH         SYMBOL        buffer
  X:0049H         SYMBOL        dataee
  -------         ENDDO         
  C:3A2FH         LINE#         372
  C:3A2FH         LINE#         373
  C:3A2FH         LINE#         378
  C:3A42H         LINE#         379
  C:3A5FH         LINE#         380
  C:3A69H         LINE#         381
  C:3A69H         LINE#         382
  C:3A7CH         LINE#         383
  C:3A7EH         LINE#         385
  C:3A7EH         LINE#         386
  C:3A95H         LINE#         387
  C:3A95H         LINE#         389
  C:3A9EH         LINE#         390
  C:3AA9H         LINE#         391
  C:3ABAH         LINE#         392
  C:3AC4H         LINE#         394
  C:3AD7H         LINE#         395
  C:3AF4H         LINE#         396
  C:3AFEH         LINE#         397
  C:3AFEH         LINE#         398
  C:3B11H         LINE#         399
  C:3B13H         LINE#         401
  C:3B13H         LINE#         402
  C:3B2AH         LINE#         403
  C:3B2AH         LINE#         405
  -------         ENDPROC       TIPO_PANTALLA
  -------         PROC          PROG_COMPARACION_ACTIVA
  -------         DO            
  X:003FH         SYMBOL        buffer
  X:0049H         SYMBOL        dataee
  -------         ENDDO         
  C:3B2BH         LINE#         412
  C:3B2BH         LINE#         413
  C:3B2BH         LINE#         418
  C:3B3EH         LINE#         419
BL51 BANKED LINKER/LOCATER V6.22.2.0                                                  10/29/2021  14:58:47  PAGE 47


  C:3B5BH         LINE#         420
  C:3B65H         LINE#         421
  C:3B65H         LINE#         422
  C:3B78H         LINE#         423
  C:3B7AH         LINE#         425
  C:3B7AH         LINE#         426
  C:3B91H         LINE#         427
  C:3B91H         LINE#         429
  C:3B9AH         LINE#         430
  C:3BA5H         LINE#         431
  C:3BB6H         LINE#         432
  C:3BC0H         LINE#         434
  C:3BD3H         LINE#         435
  C:3BF0H         LINE#         436
  C:3BFAH         LINE#         437
  C:3BFAH         LINE#         438
  C:3C0DH         LINE#         439
  C:3C0FH         LINE#         441
  C:3C0FH         LINE#         442
  C:3C26H         LINE#         443
  C:3C26H         LINE#         444
  -------         ENDPROC       PROG_COMPARACION_ACTIVA
  -------         PROC          PROG_QR_BARRAS
  -------         DO            
  X:003FH         SYMBOL        buffer
  X:0049H         SYMBOL        dataee
  -------         ENDDO         
  C:3C27H         LINE#         448
  C:3C27H         LINE#         449
  C:3C27H         LINE#         454
  C:3C3AH         LINE#         455
  C:3C57H         LINE#         456
  C:3C61H         LINE#         457
  C:3C61H         LINE#         458
  C:3C74H         LINE#         459
  C:3C76H         LINE#         461
  C:3C76H         LINE#         462
  C:3C8DH         LINE#         463
  C:3C8DH         LINE#         465
  C:3C96H         LINE#         466
  C:3CA1H         LINE#         467
  C:3CB2H         LINE#         468
  C:3CBCH         LINE#         470
  C:3CCFH         LINE#         471
  C:3CECH         LINE#         472
  C:3CF6H         LINE#         473
  C:3CF6H         LINE#         474
  C:3D09H         LINE#         475
  C:3D0BH         LINE#         477
  C:3D0BH         LINE#         478
  C:3D22H         LINE#         479
  C:3D22H         LINE#         480
  -------         ENDPROC       PROG_QR_BARRAS
  -------         PROC          PROG_CLIENTE
  -------         DO            
  X:003FH         SYMBOL        buffer
  -------         ENDDO         
BL51 BANKED LINKER/LOCATER V6.22.2.0                                                  10/29/2021  14:58:47  PAGE 48


  C:578DH         LINE#         484
  C:578DH         LINE#         485
  C:578DH         LINE#         488
  C:5796H         LINE#         489
  C:57A1H         LINE#         491
  C:57B0H         LINE#         492
  C:57BDH         LINE#         493
  -------         ENDPROC       PROG_CLIENTE
  -------         PROC          PROG_NIT
  -------         DO            
  X:003FH         SYMBOL        buffer
  -------         ENDDO         
  C:57D4H         LINE#         495
  C:57D4H         LINE#         496
  C:57D4H         LINE#         499
  C:57DDH         LINE#         500
  C:57E8H         LINE#         502
  C:57F7H         LINE#         503
  C:5804H         LINE#         504
  -------         ENDPROC       PROG_NIT
  -------         PROC          PROG_NOM_PARQ
  -------         DO            
  X:003FH         SYMBOL        buffer
  -------         ENDDO         
  C:581BH         LINE#         509
  C:581BH         LINE#         510
  C:581BH         LINE#         513
  C:5824H         LINE#         514
  C:582FH         LINE#         516
  C:583EH         LINE#         517
  C:584BH         LINE#         518
  -------         ENDPROC       PROG_NOM_PARQ
  -------         PROC          PROG_DIRECCION
  -------         DO            
  X:003FH         SYMBOL        buffer
  -------         ENDDO         
  C:5862H         LINE#         520
  C:5862H         LINE#         521
  C:5862H         LINE#         524
  C:586BH         LINE#         525
  C:5876H         LINE#         527
  C:5885H         LINE#         528
  C:5892H         LINE#         529
  -------         ENDPROC       PROG_DIRECCION
  -------         PROC          PROG_MSJ1
  -------         DO            
  X:003FH         SYMBOL        buffer
  -------         ENDDO         
  C:58A9H         LINE#         531
  C:58A9H         LINE#         532
  C:58A9H         LINE#         535
  C:58B2H         LINE#         536
  C:58BDH         LINE#         538
  C:58CCH         LINE#         539
  C:58D9H         LINE#         540
  -------         ENDPROC       PROG_MSJ1
  -------         PROC          PROG_MSJ2
BL51 BANKED LINKER/LOCATER V6.22.2.0                                                  10/29/2021  14:58:47  PAGE 49


  -------         DO            
  X:003FH         SYMBOL        buffer
  -------         ENDDO         
  C:58F0H         LINE#         543
  C:58F0H         LINE#         544
  C:58F0H         LINE#         547
  C:58F9H         LINE#         548
  C:5904H         LINE#         550
  C:5913H         LINE#         551
  C:5920H         LINE#         552
  -------         ENDPROC       PROG_MSJ2
  -------         PROC          PROG_MSJ3
  -------         DO            
  X:003FH         SYMBOL        buffer
  -------         ENDDO         
  C:5937H         LINE#         554
  C:5937H         LINE#         555
  C:5937H         LINE#         558
  C:5940H         LINE#         559
  C:594BH         LINE#         561
  C:595AH         LINE#         562
  C:5967H         LINE#         563
  -------         ENDPROC       PROG_MSJ3
  -------         PROC          PROG_MSJ4
  -------         DO            
  X:003FH         SYMBOL        buffer
  -------         ENDDO         
  C:597EH         LINE#         565
  C:597EH         LINE#         566
  C:597EH         LINE#         569
  C:5987H         LINE#         570
  C:5992H         LINE#         572
  C:59A1H         LINE#         573
  C:59AEH         LINE#         574
  -------         ENDPROC       PROG_MSJ4
  -------         PROC          PROG_MSJ5
  -------         DO            
  X:003FH         SYMBOL        buffer
  -------         ENDDO         
  C:59C5H         LINE#         576
  C:59C5H         LINE#         577
  C:59C5H         LINE#         580
  C:59CEH         LINE#         581
  C:59D9H         LINE#         583
  C:59E8H         LINE#         584
  C:59F5H         LINE#         585
  -------         ENDPROC       PROG_MSJ5
  -------         PROC          PROG_MSJ6
  -------         DO            
  X:003FH         SYMBOL        buffer
  -------         ENDDO         
  C:5A0CH         LINE#         588
  C:5A0CH         LINE#         589
  C:5A0CH         LINE#         592
  C:5A15H         LINE#         593
  C:5A20H         LINE#         595
  C:5A2FH         LINE#         596
BL51 BANKED LINKER/LOCATER V6.22.2.0                                                  10/29/2021  14:58:47  PAGE 50


  C:5A3CH         LINE#         597
  -------         ENDPROC       PROG_MSJ6
  -------         PROC          PROG_MSJ7
  -------         DO            
  X:003FH         SYMBOL        buffer
  -------         ENDDO         
  C:5A53H         LINE#         601
  C:5A53H         LINE#         602
  C:5A53H         LINE#         605
  C:5A5CH         LINE#         606
  C:5A67H         LINE#         608
  C:5A76H         LINE#         609
  C:5A83H         LINE#         610
  -------         ENDPROC       PROG_MSJ7
  -------         PROC          SHOW
  C:409FH         LINE#         615
  C:409FH         LINE#         616
  C:409FH         LINE#         617
  C:40A8H         LINE#         618
  C:40B1H         LINE#         619
  C:40BAH         LINE#         620
  C:40C3H         LINE#         621
  C:40CCH         LINE#         622
  C:40D5H         LINE#         623
  C:40DEH         LINE#         624
  C:40E7H         LINE#         625
  C:40F0H         LINE#         626
  C:40F9H         LINE#         627
  C:4102H         LINE#         628
  C:410BH         LINE#         629
  C:4114H         LINE#         630
  C:411DH         LINE#         631
  C:4126H         LINE#         632
  C:412FH         LINE#         633
  C:4138H         LINE#         634
  C:4141H         LINE#         635
  C:414AH         LINE#         636
  C:4153H         LINE#         637
  C:415CH         LINE#         638
  -------         ENDPROC       SHOW
  -------         PROC          MENU
  -------         DO            
  X:000EH         SYMBOL        cmd
  X:0011H         SYMBOL        option1
  X:0014H         SYMBOL        option2
  X:0017H         SYMBOL        opt_buffer
  X:002BH         SYMBOL        buffer
  -------         ENDDO         
  C:27B8H         LINE#         646
  C:27B8H         LINE#         647
  C:27B8H         LINE#         656
  C:27C1H         LINE#         661
  C:27C1H         LINE#         662
  C:27CAH         LINE#         663
  C:27CDH         LINE#         665
  C:27D0H         LINE#         666
  C:27DEH         LINE#         667
BL51 BANKED LINKER/LOCATER V6.22.2.0                                                  10/29/2021  14:58:47  PAGE 51


  C:27F4H         LINE#         668
  C:280AH         LINE#         669
  C:2810H         LINE#         672
  C:2810H         LINE#         673
  C:2819H         LINE#         675
  C:2824H         LINE#         676
  C:2832H         LINE#         677
  C:2841H         LINE#         680
  C:2847H         LINE#         683
  C:284AH         LINE#         684
  C:284AH         LINE#         685
  C:284AH         LINE#         686
  C:284DH         LINE#         689
  C:2850H         LINE#         690
  C:285EH         LINE#         691
  C:2872H         LINE#         692
  C:2886H         LINE#         697
  C:289CH         LINE#         698
  C:289CH         LINE#         700
  C:28ABH         LINE#         701
  C:28ADH         LINE#         702
  C:28BDH         LINE#         703
  C:28BDH         LINE#         705
  C:28CCH         LINE#         706
  C:28EAH         LINE#         707
  C:28EAH         LINE#         713
  C:28FDH         LINE#         714
  C:28FDH         LINE#         715
  C:2952H         LINE#         716
  C:2952H         LINE#         717
  C:2952H         LINE#         718
  C:2955H         LINE#         720
  C:2958H         LINE#         722
  C:2958H         LINE#         723
  C:295BH         LINE#         724
  C:295EH         LINE#         726
  C:295EH         LINE#         728
  C:2961H         LINE#         730
  C:2964H         LINE#         732
  C:2964H         LINE#         733
  C:2967H         LINE#         735
  C:296AH         LINE#         737
  C:296AH         LINE#         738
  C:296DH         LINE#         739
  C:2970H         LINE#         740
  C:2970H         LINE#         741
  C:2973H         LINE#         742
  C:2976H         LINE#         744
  C:2976H         LINE#         745
  C:2979H         LINE#         746
  C:297CH         LINE#         747
  C:297CH         LINE#         748
  C:297FH         LINE#         750
  C:2982H         LINE#         751
  C:2982H         LINE#         752
  C:2985H         LINE#         754
  C:2988H         LINE#         755
BL51 BANKED LINKER/LOCATER V6.22.2.0                                                  10/29/2021  14:58:47  PAGE 52


  C:2988H         LINE#         756
  C:298BH         LINE#         758
  C:298EH         LINE#         759
  C:298EH         LINE#         761
  C:2991H         LINE#         763
  C:2994H         LINE#         764
  C:2994H         LINE#         766
  C:2997H         LINE#         768
  C:299AH         LINE#         769
  C:299AH         LINE#         771
  C:299DH         LINE#         773
  C:29A0H         LINE#         775
  C:29A0H         LINE#         777
  C:29A3H         LINE#         779
  C:29A6H         LINE#         780
  C:29A6H         LINE#         782
  C:29A9H         LINE#         784
  C:29ACH         LINE#         786
  C:29ACH         LINE#         788
  C:29AFH         LINE#         790
  C:29B2H         LINE#         791
  C:29B2H         LINE#         793
  C:29B5H         LINE#         795
  C:29B8H         LINE#         796
  C:29B8H         LINE#         798
  C:29BBH         LINE#         800
  C:29BEH         LINE#         802
  C:29BEH         LINE#         804
  C:29C1H         LINE#         806
  C:29C4H         LINE#         807
  C:29C4H         LINE#         809
  C:29C7H         LINE#         811
  C:29CAH         LINE#         814
  C:29CAH         LINE#         816
  C:29CDH         LINE#         817
  C:29D0H         LINE#         818
  C:29D0H         LINE#         821
  C:29D0H         LINE#         825
  C:29D0H         LINE#         826
  C:29EEH         LINE#         827
  C:29F1H         LINE#         828
  C:29F1H         LINE#         829
  C:29F1H         LINE#         830
  C:29F1H         LINE#         831
  -------         ENDPROC       MENU
  -------         ENDMOD        PROG

  -------         MODULE        PTO_PARALELO
  C:0000H         SYMBOL        _ICE_DUMMY_
  D:0080H         PUBLIC        P0
  C:2F1FH         PUBLIC        _Trama_print_cod_barras
  D:00A0H         PUBLIC        P2
  D:00B0H         PUBLIC        P3
  B:0080H.2       PUBLIC        led_err_imp
  C:350EH         PUBLIC        load_and_send_id_cod
  C:4B19H         PUBLIC        _recibe_port
  B:00B0H.2       PUBLIC        ready
BL51 BANKED LINKER/LOCATER V6.22.2.0                                                  10/29/2021  14:58:47  PAGE 53


  B:0080H.6       PUBLIC        rx_in_data
  C:616EH         PUBLIC        Pulso_Bus
  C:4F94H         PUBLIC        _send_portERR
  B:00B0H.3       PUBLIC        busy
  C:5EC6H         PUBLIC        load_and_send_info_reloj
  C:4696H         PUBLIC        _send_port
  B:00B0H.4       PUBLIC        port_clk
  C:620DH         PUBLIC        cond_ini_pto
  -------         PROC          _RECIBE_PORT
  X:000EH         SYMBOL        buffer_port
  -------         DO            
  D:0006H         SYMBOL        count
  X:0011H         SYMBOL        time_out
  X:0012H         SYMBOL        num_data
  X:0013H         SYMBOL        T_ANCHO
  -------         ENDDO         
  C:4B19H         LINE#         63
  C:4B24H         LINE#         64
  C:4B24H         LINE#         68
  C:4B2DH         LINE#         71
  C:4B30H         LINE#         72
  C:4B35H         LINE#         73
  C:4B37H         LINE#         74
  C:4B3BH         LINE#         75
  C:4B3DH         LINE#         76
  C:4B45H         LINE#         79
  C:4B4EH         LINE#         80
  C:4B4EH         LINE#         81
  C:4B56H         LINE#         83
  C:4B56H         LINE#         84
  C:4B5BH         LINE#         85
  C:4B5FH         LINE#         86
  C:4B5FH         LINE#         87
  C:4B64H         LINE#         88
  C:4B64H         LINE#         90
  C:4B6DH         LINE#         91
  C:4B76H         LINE#         92
  C:4B76H         LINE#         93
  C:4B86H         LINE#         94
  C:4B8CH         LINE#         95
  C:4B96H         LINE#         96
  C:4B9EH         LINE#         97
  C:4B9EH         LINE#         99
  C:4B9EH         LINE#         101
  C:4B9EH         LINE#         103
  C:4BA1H         LINE#         105
  C:4BA3H         LINE#         107
  C:4BA5H         LINE#         108
  C:4BA7H         LINE#         109
  C:4BAAH         LINE#         111
  C:4BAFH         LINE#         112
  -------         ENDPROC       _RECIBE_PORT
  -------         PROC          _SEND_PORT
  X:0048H         SYMBOL        buffer_port
  X:004BH         SYMBOL        length_char
  -------         DO            
  X:004CH         SYMBOL        cont
BL51 BANKED LINKER/LOCATER V6.22.2.0                                                  10/29/2021  14:58:47  PAGE 54


  X:0050H         SYMBOL        timeOut
  X:0051H         SYMBOL        length
  -------         ENDDO         
  C:4696H         LINE#         120
  C:46A4H         LINE#         121
  C:46A4H         LINE#         126
  C:46A8H         LINE#         128
  C:46AAH         LINE#         129
  C:46ACH         LINE#         130
  C:46AEH         LINE#         131
  C:46B3H         LINE#         132
  C:46B5H         LINE#         133
  C:46BFH         LINE#         135
  C:46C8H         LINE#         136
  C:46C8H         LINE#         137
  C:46CAH         LINE#         138
  C:46CCH         LINE#         139
  C:46F0H         LINE#         140
  C:4704H         LINE#         141
  C:4704H         LINE#         142
  C:4707H         LINE#         143
  C:4709H         LINE#         144
  C:4709H         LINE#         145
  C:470BH         LINE#         146
  C:4714H         LINE#         147
  C:4714H         LINE#         151
  C:4714H         LINE#         153
  C:4724H         LINE#         154
  C:4727H         LINE#         155
  C:4731H         LINE#         157
  C:4737H         LINE#         158
  C:473AH         LINE#         160
  C:473AH         LINE#         161
  C:473DH         LINE#         162
  C:473FH         LINE#         163
  C:4741H         LINE#         164
  C:4743H         LINE#         165
  -------         ENDPROC       _SEND_PORT
  -------         PROC          _TRAMA_PRINT_COD_BARRAS
  X:001FH         SYMBOL        msj
  X:0022H         SYMBOL        vehiculo
  -------         DO            
  X:0023H         SYMBOL        temp
  X:0029H         SYMBOL        Buffer_port
  X:0047H         SYMBOL        j
  -------         ENDDO         
  C:2F1FH         LINE#         372
  C:2F2FH         LINE#         373
  C:2F2FH         LINE#         376
  C:2F35H         LINE#         378
  C:2F39H         LINE#         379
  C:2F3DH         LINE#         380
  C:2F40H         LINE#         381
  C:2F48H         LINE#         382
  C:2F6CH         LINE#         383
  C:2F83H         LINE#         386
  C:2F92H         LINE#         388
BL51 BANKED LINKER/LOCATER V6.22.2.0                                                  10/29/2021  14:58:47  PAGE 55


  C:2FA1H         LINE#         390
  C:2FB0H         LINE#         392
  C:2FBFH         LINE#         394
  C:2FCEH         LINE#         395
  C:2FD1H         LINE#         396
  C:2FE7H         LINE#         397
  C:2FFEH         LINE#         398
  C:3004H         LINE#         399
  C:3007H         LINE#         400
  C:301DH         LINE#         401
  C:302BH         LINE#         404
  C:3038H         LINE#         406
  C:303AH         LINE#         407
  C:303DH         LINE#         408
  C:304CH         LINE#         410
  C:304FH         LINE#         411
  C:3064H         LINE#         412
  -------         ENDPROC       _TRAMA_PRINT_COD_BARRAS
  -------         PROC          PULSO_BUS
  C:616EH         LINE#         499
  C:616EH         LINE#         500
  C:616EH         LINE#         501
  C:6170H         LINE#         502
  C:6177H         LINE#         503
  C:6179H         LINE#         504
  -------         ENDPROC       PULSO_BUS
  -------         PROC          _SEND_PORTERR
  X:001FH         SYMBOL        cod_err
  -------         DO            
  X:0020H         SYMBOL        timeOut
  X:0021H         SYMBOL        cont
  -------         ENDDO         
  C:4F94H         LINE#         509
  C:4F9AH         LINE#         510
  C:4F9AH         LINE#         514
  C:4F9CH         LINE#         515
  C:4F9EH         LINE#         516
  C:4FA1H         LINE#         517
  C:4FA9H         LINE#         519
  C:4FABH         LINE#         520
  C:4FADH         LINE#         521
  C:4FB6H         LINE#         522
  C:4FB6H         LINE#         523
  C:4FD8H         LINE#         524
  C:4FECH         LINE#         525
  C:4FECH         LINE#         526
  C:4FF1H         LINE#         527
  C:4FF1H         LINE#         528
  C:4FF3H         LINE#         529
  C:4FFCH         LINE#         530
  C:4FFCH         LINE#         531
  C:5002H         LINE#         532
  C:5005H         LINE#         533
  C:5005H         LINE#         534
  C:5007H         LINE#         535
  C:5009H         LINE#         536
  C:500BH         LINE#         538
BL51 BANKED LINKER/LOCATER V6.22.2.0                                                  10/29/2021  14:58:47  PAGE 56


  C:500EH         LINE#         540
  C:5015H         LINE#         541
  -------         ENDPROC       _SEND_PORTERR
  -------         PROC          COND_INI_PTO
  C:620DH         LINE#         547
  C:620DH         LINE#         548
  C:620DH         LINE#         550
  C:620FH         LINE#         551
  C:6211H         LINE#         552
  C:6213H         LINE#         553
  C:6216H         LINE#         554
  -------         ENDPROC       COND_INI_PTO
  -------         PROC          LOAD_AND_SEND_INFO_RELOJ
  -------         DO            
  X:0010H         SYMBOL        buffer_info
  -------         ENDDO         
  C:5EC6H         LINE#         559
  C:5EC6H         LINE#         560
  C:5EC6H         LINE#         563
  C:5ECCH         LINE#         565
  C:5ED0H         LINE#         567
  C:5ED9H         LINE#         568
  C:5EE3H         LINE#         569
  C:5EE7H         LINE#         573
  -------         ENDPROC       LOAD_AND_SEND_INFO_RELOJ
  -------         PROC          LOAD_AND_SEND_ID_COD
  -------         DO            
  X:0010H         SYMBOL        buffer_info
  X:001BH         SYMBOL        buf
  X:001FH         SYMBOL        i
  X:0020H         SYMBOL        k
  -------         ENDDO         
  C:350EH         LINE#         580
  C:350EH         LINE#         581
  C:350EH         LINE#         585
  C:3513H         LINE#         587
  C:3519H         LINE#         588
  C:351DH         LINE#         589
  C:3543H         LINE#         590
  C:3549H         LINE#         591
  C:3549H         LINE#         592
  C:355AH         LINE#         593
  C:355AH         LINE#         594
  C:3569H         LINE#         595
  C:356FH         LINE#         596
  C:3571H         LINE#         597
  C:3589H         LINE#         599
  C:3591H         LINE#         602
  C:35B7H         LINE#         604
  C:35BCH         LINE#         605
  C:35BCH         LINE#         606
  C:35CDH         LINE#         607
  C:35CDH         LINE#         608
  C:35DCH         LINE#         609
  C:35E2H         LINE#         610
  C:35FCH         LINE#         611
  C:3604H         LINE#         614
BL51 BANKED LINKER/LOCATER V6.22.2.0                                                  10/29/2021  14:58:47  PAGE 57


  C:3615H         LINE#         615
  -------         ENDPROC       LOAD_AND_SEND_ID_COD
  -------         ENDMOD        PTO_PARALELO

  -------         MODULE        TIBBO
  C:0000H         SYMBOL        _ICE_DUMMY_
  C:5D29H         PUBLIC        _Debug_txt_Tibbo
  D:0080H         PUBLIC        P0
  D:0090H         PUBLIC        P1
  B:0090H.0       PUBLIC        txd2
  B:00A8H.7       PUBLIC        EA
  C:5745H         PUBLIC        _tx_aux
  B:0080H.0       PUBLIC        rx_ip
  C:6220H         PUBLIC        Debug_Dividir_texto
  C:6265H         PUBLIC        cond_ini_tibbo
  C:60C2H         PUBLIC        time_mbit
  C:54D1H         PUBLIC        _Debug_chr_Tibbo32
  C:501CH         PUBLIC        rx_Data
  C:6017H         PUBLIC        time_bit
  C:5390H         PUBLIC        _DebugBufferMF
  C:5A9AH         PUBLIC        _Debug_chr_Tibbo
  C:6011H         SYMBOL        L?0059
  -------         PROC          L?0058
  -------         ENDPROC       L?0058
  C:6011H         SYMBOL        L?0059
  -------         PROC          TIME_BIT
  -------         DO            
  D:0007H         SYMBOL        j
  -------         ENDDO         
  C:6017H         LINE#         18
  C:6017H         LINE#         19
  C:6017H         LINE#         22
  C:6023H         LINE#         23
  C:6023H         LINE#         24
  C:6024H         LINE#         25
  C:6025H         LINE#         26
  C:6026H         LINE#         27
  C:6027H         LINE#         28
  C:6028H         LINE#         29
  C:6029H         LINE#         30
  C:602AH         LINE#         31
  C:602BH         LINE#         32
  C:602CH         LINE#         34
  C:602DH         LINE#         35
  C:6030H         LINE#         36
  -------         ENDPROC       TIME_BIT
  -------         PROC          TIME_MBIT
  -------         DO            
  D:0007H         SYMBOL        j
  -------         ENDDO         
  C:60C2H         LINE#         39
  C:60C2H         LINE#         40
  C:60C2H         LINE#         42
  C:60CEH         LINE#         43
  C:60CEH         LINE#         44
  C:60CFH         LINE#         45
  C:60D0H         LINE#         46
BL51 BANKED LINKER/LOCATER V6.22.2.0                                                  10/29/2021  14:58:47  PAGE 58


  C:60D1H         LINE#         47
  C:60D2H         LINE#         48
  C:60D3H         LINE#         49
  C:60D4H         LINE#         50
  C:60D5H         LINE#         52
  C:60D6H         LINE#         53
  C:60D7H         LINE#         54
  C:60D8H         LINE#         55
  C:60DBH         LINE#         57
  -------         ENDPROC       TIME_MBIT
  -------         PROC          _TX_AUX
  D:0006H         SYMBOL        caracter
  -------         DO            
  D:0004H         SYMBOL        j
  D:0005H         SYMBOL        temporal
  D:0006H         SYMBOL        bitTX
  -------         ENDDO         
  C:5745H         LINE#         62
  C:5747H         LINE#         63
  C:5747H         LINE#         66
  C:5749H         LINE#         67
  C:574BH         LINE#         68
  C:574EH         LINE#         69
  C:574FH         LINE#         70
  C:5750H         LINE#         71
  C:5752H         LINE#         72
  C:5756H         LINE#         73
  C:5758H         LINE#         74
  C:5758H         LINE#         75
  C:575AH         LINE#         76
  C:575CH         LINE#         78
  C:575CH         LINE#         79
  C:575EH         LINE#         80
  C:575EH         LINE#         81
  C:5761H         LINE#         82
  C:576DH         LINE#         83
  C:576DH         LINE#         84
  C:5771H         LINE#         85
  C:5774H         LINE#         86
  C:5776H         LINE#         87
  C:5776H         LINE#         88
  C:5778H         LINE#         89
  C:577AH         LINE#         91
  C:577AH         LINE#         92
  C:577CH         LINE#         93
  C:577CH         LINE#         94
  C:577FH         LINE#         95
  C:5782H         LINE#         96
  C:5784H         LINE#         97
  C:5787H         LINE#         98
  C:578AH         LINE#         100
  C:578CH         LINE#         101
  -------         ENDPROC       _TX_AUX
  -------         PROC          _DEBUG_CHR_TIBBO
  D:0003H         SYMBOL        Dat
  -------         DO            
  D:0007H         SYMBOL        temp
BL51 BANKED LINKER/LOCATER V6.22.2.0                                                  10/29/2021  14:58:47  PAGE 59


  -------         ENDDO         
  C:5A9AH         LINE#         137
  C:5A9CH         LINE#         138
  C:5A9CH         LINE#         140
  C:5AA4H         LINE#         141
  C:5AA4H         LINE#         142
  C:5AABH         LINE#         143
  C:5ABEH         LINE#         145
  C:5AC1H         LINE#         147
  C:5AC5H         LINE#         148
  C:5AD8H         LINE#         149
  C:5ADBH         LINE#         150
  C:5AE0H         LINE#         152
  C:5AE0H         LINE#         153
  -------         ENDPROC       _DEBUG_CHR_TIBBO
  -------         PROC          _DEBUG_CHR_TIBBO32
  X:0031H         SYMBOL        dato
  -------         DO            
  D:0003H         SYMBOL        temp3
  X:0035H         SYMBOL        temp2
  D:0001H         SYMBOL        temp1
  D:0002H         SYMBOL        temp0
  -------         ENDDO         
  C:54D1H         LINE#         157
  C:54D7H         LINE#         158
  C:54D7H         LINE#         161
  C:54ECH         LINE#         162
  C:5502H         LINE#         163
  C:5517H         LINE#         164
  C:551FH         LINE#         165
  C:5524H         LINE#         166
  C:552CH         LINE#         167
  C:5531H         LINE#         168
  -------         ENDPROC       _DEBUG_CHR_TIBBO32
  -------         PROC          _DEBUGBUFFERMF
  X:0048H         SYMBOL        str
  X:004BH         SYMBOL        num_char
  X:004CH         SYMBOL        io
  -------         DO            
  X:004DH         SYMBOL        j
  -------         ENDDO         
  C:5390H         LINE#         177
  C:539EH         LINE#         178
  C:539EH         LINE#         182
  C:53A6H         LINE#         183
  C:53A6H         LINE#         184
  C:53B5H         LINE#         185
  C:53B5H         LINE#         186
  C:53B9H         LINE#         187
  C:53C2H         LINE#         188
  C:53D4H         LINE#         189
  C:53D4H         LINE#         190
  C:53E6H         LINE#         191
  C:53F0H         LINE#         192
  C:53F8H         LINE#         194
  C:53FDH         LINE#         195
  C:53FDH         LINE#         197
BL51 BANKED LINKER/LOCATER V6.22.2.0                                                  10/29/2021  14:58:47  PAGE 60


  -------         ENDPROC       _DEBUGBUFFERMF
  -------         PROC          _DEBUG_TXT_TIBBO
  X:004EH         SYMBOL        str
  -------         DO            
  X:0051H         SYMBOL        i
  -------         ENDDO         
  C:5D29H         LINE#         202
  C:5D34H         LINE#         203
  C:5D34H         LINE#         205
  C:5D37H         LINE#         207
  C:5D3FH         LINE#         208
  C:5D3FH         LINE#         209
  C:5D5BH         LINE#         210
  C:5D5BH         LINE#         211
  C:5D5EH         LINE#         212
  C:5D66H         LINE#         214
  C:5D66H         LINE#         215
  -------         ENDPROC       _DEBUG_TXT_TIBBO
  -------         PROC          DEBUG_DIVIDIR_TEXTO
  C:6220H         LINE#         217
  C:6220H         LINE#         218
  C:6220H         LINE#         219
  -------         ENDPROC       DEBUG_DIVIDIR_TEXTO
  -------         PROC          RX_DATA
  -------         DO            
  D:0006H         SYMBOL        temporal
  -------         ENDDO         
  C:501CH         LINE#         225
  C:501CH         LINE#         226
  C:501CH         LINE#         229
  C:501EH         LINE#         230
  C:5021H         LINE#         232
  C:5024H         LINE#         234
  C:5030H         LINE#         235
  C:5030H         LINE#         237
  C:5033H         LINE#         239
  C:503FH         LINE#         240
  C:503FH         LINE#         242
  C:5042H         LINE#         244
  C:504EH         LINE#         245
  C:504EH         LINE#         247
  C:5051H         LINE#         249
  C:505DH         LINE#         250
  C:505DH         LINE#         252
  C:5060H         LINE#         254
  C:506CH         LINE#         255
  C:506CH         LINE#         257
  C:506FH         LINE#         259
  C:507BH         LINE#         260
  C:507BH         LINE#         262
  C:507EH         LINE#         264
  C:508AH         LINE#         265
  C:508AH         LINE#         267
  C:508DH         LINE#         268
  C:509BH         LINE#         270
  C:509EH         LINE#         271
  C:50A1H         LINE#         272
BL51 BANKED LINKER/LOCATER V6.22.2.0                                                  10/29/2021  14:58:47  PAGE 61


  C:50A1H         LINE#         273
  C:50A1H         LINE#         275
  C:50A3H         LINE#         277
  -------         ENDPROC       RX_DATA
  -------         PROC          COND_INI_TIBBO
  C:6265H         LINE#         297
  C:6265H         LINE#         298
  C:6265H         LINE#         300
  C:6267H         LINE#         301
  C:6269H         LINE#         302
  -------         ENDPROC       COND_INI_TIBBO
  -------         ENDMOD        TIBBO

  -------         MODULE        UART
  C:0000H         SYMBOL        _ICE_DUMMY_
  C:5F44H         PUBLIC        com_getchar
  C:6180H         PUBLIC        com_rbuflen
  C:6192H         PUBLIC        com_tbuflen
  B:00A8H.4       PUBLIC        ES
  B:0098H.0       PUBLIC        RI
  C:5E1DH         PUBLIC        _com_putchar
  B:0098H.1       PUBLIC        TI
  B:00B8H.4       PUBLIC        PS
  D:0009H         SYMBOL        r_in
  D:000AH         SYMBOL        r_out
  D:000BH         SYMBOL        t_in
  D:000CH         SYMBOL        t_out
  D:0099H         PUBLIC        SBUF
  D:0087H         PUBLIC        PCON
  D:0089H         PUBLIC        TMOD
  B:0021H.3       SYMBOL        ti_restart
  B:00A8H.3       PUBLIC        ET1
  D:008DH         PUBLIC        TH1
  B:0098H.7       PUBLIC        SM0
  B:0098H.6       PUBLIC        SM1
  D:008BH         PUBLIC        TL1
  B:0098H.5       PUBLIC        SM2
  B:0088H.6       PUBLIC        TR1
  C:5EF2H         PUBLIC        com_initialize
  B:0098H.4       PUBLIC        REN
  C:61F3H         PUBLIC        clear_buffer
  C:5D67H         PUBLIC        com_baudrate
  C:50A4H         SYMBOL        com_isr
  -------         PROC          COM_ISR
  -------         DO            
  D:0008H         SYMBOL        cDatoRx
  -------         ENDDO         
  C:50A4H         LINE#         108
  C:50B5H         LINE#         116
  C:50B8H         LINE#         117
  C:50B8H         LINE#         119
  C:50BAH         LINE#         120
  C:50BDH         LINE#         121
  C:50CDH         LINE#         122
  C:50CDH         LINE#         123
  C:50D6H         LINE#         124
  C:50D8H         LINE#         125
BL51 BANKED LINKER/LOCATER V6.22.2.0                                                  10/29/2021  14:58:47  PAGE 62


  C:50DFH         LINE#         126
  C:50E5H         LINE#         127
  C:50E5H         LINE#         128
  C:50EAH         LINE#         129
  C:50EAH         LINE#         130
  C:50F0H         LINE#         132
  C:50F2H         LINE#         133
  C:50F7H         LINE#         134
  C:50F7H         LINE#         135
  C:50FDH         LINE#         137
  C:50FDH         LINE#         277
  C:50FDH         LINE#         281
  C:5100H         LINE#         282
  C:5100H         LINE#         283
  C:5102H         LINE#         285
  C:5108H         LINE#         286
  C:5108H         LINE#         287
  C:5112H         LINE#         288
  C:5114H         LINE#         289
  C:5116H         LINE#         290
  C:5118H         LINE#         292
  C:5118H         LINE#         293
  C:511AH         LINE#         294
  C:511AH         LINE#         295
  C:511AH         LINE#         298
  -------         ENDPROC       COM_ISR
  -------         PROC          COM_INITIALIZE
  C:5EF2H         LINE#         303
  C:5EF9H         LINE#         304
  C:5EF9H         LINE#         308
  C:5EFCH         LINE#         313
  C:5EFFH         LINE#         314
  C:5F01H         LINE#         316
  C:5F03H         LINE#         317
  C:5F05H         LINE#         322
  C:5F09H         LINE#         323
  C:5F0BH         LINE#         324
  C:5F0DH         LINE#         326
  C:5F0FH         LINE#         327
  C:5F11H         LINE#         328
  C:5F13H         LINE#         330
  C:5F15H         LINE#         331
  C:5F17H         LINE#         332
  -------         ENDPROC       COM_INITIALIZE
  -------         PROC          COM_BAUDRATE
  -------         DO            
  D:0007H         SYMBOL        dataee
  -------         ENDDO         
  C:5D67H         LINE#         338
  C:5D6EH         LINE#         340
  C:5D6EH         LINE#         342
  C:5D77H         LINE#         346
  C:5D79H         LINE#         347
  C:5D7CH         LINE#         348
  C:5D7EH         LINE#         353
  C:5D80H         LINE#         354
  C:5D82H         LINE#         356
BL51 BANKED LINKER/LOCATER V6.22.2.0                                                  10/29/2021  14:58:47  PAGE 63


  C:5D85H         LINE#         358
  C:5D88H         LINE#         359
  C:5D8BH         LINE#         360
  C:5D8EH         LINE#         361
  C:5D8EH         LINE#         362
  C:5D91H         LINE#         363
  C:5D94H         LINE#         364
  C:5D96H         LINE#         365
  C:5D98H         LINE#         367
  C:5D98H         LINE#         369
  C:5D9BH         LINE#         370
  C:5D9EH         LINE#         371
  C:5DA0H         LINE#         372
  C:5DA0H         LINE#         373
  -------         ENDPROC       COM_BAUDRATE
  -------         PROC          _COM_PUTCHAR
  X:00B4H         SYMBOL        c
  C:5E1DH         LINE#         379
  C:5E29H         LINE#         381
  C:5E29H         LINE#         385
  C:5E36H         LINE#         386
  C:5E3AH         LINE#         392
  C:5E48H         LINE#         393
  C:5E4AH         LINE#         395
  C:5E4DH         LINE#         396
  C:5E4DH         LINE#         397
  C:5E4FH         LINE#         398
  C:5E51H         LINE#         399
  C:5E51H         LINE#         401
  C:5E53H         LINE#         402
  -------         ENDPROC       _COM_PUTCHAR
  -------         PROC          COM_GETCHAR
  C:5F44H         LINE#         408
  C:5F4BH         LINE#         409
  C:5F4BH         LINE#         410
  C:5F51H         LINE#         411
  C:5F57H         LINE#         413
  C:5F65H         LINE#         414
  -------         ENDPROC       COM_GETCHAR
  -------         PROC          COM_RBUFLEN
  C:6180H         LINE#         420
  C:6187H         LINE#         421
  C:6187H         LINE#         422
  C:618DH         LINE#         423
  -------         ENDPROC       COM_RBUFLEN
  -------         PROC          COM_TBUFLEN
  C:6192H         LINE#         429
  C:6199H         LINE#         430
  C:6199H         LINE#         431
  C:619FH         LINE#         432
  -------         ENDPROC       COM_TBUFLEN
  -------         PROC          CLEAR_BUFFER
  C:61F3H         LINE#         433
  C:61F3H         LINE#         434
  C:61F3H         LINE#         435
  C:61F6H         LINE#         436
  C:61F8H         LINE#         438
BL51 BANKED LINKER/LOCATER V6.22.2.0                                                  10/29/2021  14:58:47  PAGE 64


  C:61FAH         LINE#         439
  C:61FCH         LINE#         440
  C:61FEH         LINE#         441
  C:6200H         LINE#         442
  -------         ENDPROC       CLEAR_BUFFER
  -------         ENDMOD        UART

  -------         MODULE        ACCESCAN
  C:0000H         SYMBOL        _ICE_DUMMY_
  D:0080H         PUBLIC        P0
  D:0090H         PUBLIC        P1
  B:0080H.2       PUBLIC        led_err_imp
  B:0080H.3       PUBLIC        Atascado
  B:0090H.7       PUBLIC        lock
  C:2143H         PUBLIC        _Valida_Trama_Pto
  -------         PROC          _VALIDA_TRAMA_PTO
  X:000EH         SYMBOL        buffer
  X:0011H         SYMBOL        length_trama
  -------         DO            
  X:0012H         SYMBOL        buff
  -------         ENDDO         
  C:2143H         LINE#         84
  C:2151H         LINE#         85
  C:2151H         LINE#         88
  C:2187H         LINE#         89
  C:2187H         LINE#         91
  C:2196H         LINE#         93
  C:2199H         LINE#         95
  C:2199H         LINE#         97
  C:21ABH         LINE#         98
  C:21ABH         LINE#         99
  C:21B8H         LINE#         100
  C:21B8H         LINE#         101
  C:21BDH         LINE#         102
  C:21BFH         LINE#         103
  C:21C4H         LINE#         104
  C:21C6H         LINE#         105
  C:21C8H         LINE#         107
  C:21C8H         LINE#         108
  C:21DCH         LINE#         109
  C:21DCH         LINE#         110
  C:21DCH         LINE#         111
  C:21DCH         LINE#         113
  C:21DCH         LINE#         114
  C:21DCH         LINE#         115
  C:21DEH         LINE#         117
  C:21F0H         LINE#         118
  C:21F0H         LINE#         120
  C:2200H         LINE#         121
  C:2200H         LINE#         122
  C:2202H         LINE#         123
  C:2204H         LINE#         124
  C:2206H         LINE#         125
  C:2208H         LINE#         127
  C:221CH         LINE#         128
  C:221CH         LINE#         129
  C:2221H         LINE#         130
BL51 BANKED LINKER/LOCATER V6.22.2.0                                                  10/29/2021  14:58:47  PAGE 65


  C:222AH         LINE#         132
  C:222FH         LINE#         133
  C:222FH         LINE#         134
  C:222FH         LINE#         136
  C:2230H         LINE#         139
  C:224AH         LINE#         140
  C:224AH         LINE#         141
  C:224CH         LINE#         142
  C:224FH         LINE#         145
  C:2269H         LINE#         146
  C:2269H         LINE#         147
  C:226BH         LINE#         148
  C:226EH         LINE#         150
  C:2288H         LINE#         151
  C:2288H         LINE#         152
  C:228AH         LINE#         153
  C:228DH         LINE#         155
  C:22A7H         LINE#         156
  C:22A7H         LINE#         157
  C:22A9H         LINE#         158
  C:22ACH         LINE#         160
  C:22C6H         LINE#         161
  C:22C6H         LINE#         162
  C:22C8H         LINE#         163
  C:22CBH         LINE#         165
  C:22E5H         LINE#         166
  C:22E5H         LINE#         167
  C:22E7H         LINE#         168
  C:22E9H         LINE#         170
  C:2319H         LINE#         171
  C:2319H         LINE#         172
  C:231CH         LINE#         173
  C:231CH         LINE#         175
  C:2353H         LINE#         176
  C:2353H         LINE#         177
  C:2358H         LINE#         178
  C:2358H         LINE#         180
  C:2390H         LINE#         181
  C:2390H         LINE#         183
  C:2398H         LINE#         184
  C:23A4H         LINE#         187
  C:23A9H         LINE#         189
  C:23AFH         LINE#         190
  C:23B4H         LINE#         191
  C:23B4H         LINE#         192
  C:23B4H         LINE#         196
  C:23B7H         LINE#         200
  C:23F7H         LINE#         201
  C:23F7H         LINE#         203
  C:240CH         LINE#         204
  C:2412H         LINE#         205
  C:243CH         LINE#         207
  C:2444H         LINE#         208
  C:2444H         LINE#         210
  C:244BH         LINE#         211
  C:244BH         LINE#         212
  C:2450H         LINE#         213
BL51 BANKED LINKER/LOCATER V6.22.2.0                                                  10/29/2021  14:58:47  PAGE 66


  C:2450H         LINE#         214
  C:2452H         LINE#         216
  C:2452H         LINE#         217
  C:245BH         LINE#         218
  C:245BH         LINE#         219
  C:245BH         LINE#         221
  C:245DH         LINE#         224
  C:245DH         LINE#         227
  C:2468H         LINE#         231
  C:2468H         LINE#         232
  C:2468H         LINE#         233
  C:2495H         LINE#         234
  C:2495H         LINE#         235
  C:24A4H         LINE#         238
  C:24ADH         LINE#         239
  C:24C4H         LINE#         242
  C:24C4H         LINE#         244
  C:24D6H         LINE#         245
  C:24D6H         LINE#         246
  C:24DBH         LINE#         247
  C:24E1H         LINE#         248
  C:24E7H         LINE#         250
  C:24E7H         LINE#         252
  -------         ENDPROC       _VALIDA_TRAMA_PTO
  -------         ENDMOD        ACCESCAN

  -------         MODULE        VERPRINT
  C:0000H         SYMBOL        _ICE_DUMMY_
  C:1CF0H         PUBLIC        Lee_ticket
  D:0090H         PUBLIC        P1
  C:5F6AH         PUBLIC        _num_num
  B:00A8H.4       PUBLIC        ES
  C:361EH         PUBLIC        _Bloque_Horario
  C:372EH         PUBLIC        _check_fechaOut_2
  B:0090H.7       PUBLIC        lock
  C:60AFH         PUBLIC        _num_char
  -------         PROC          _NUM_NUM
  D:0001H         SYMBOL        p
  -------         DO            
  D:0007H         SYMBOL        contador
  -------         ENDDO         
  C:5F6AH         LINE#         75
  C:5F6AH         LINE#         76
  C:5F6AH         LINE#         77
  C:5F6CH         LINE#         78
  C:5F83H         LINE#         79
  C:5F83H         LINE#         81
  C:5F8AH         LINE#         82
  C:5F8BH         LINE#         83
  C:5F8DH         LINE#         84
  C:5F8DH         LINE#         85
  -------         ENDPROC       _NUM_NUM
  -------         PROC          L?0055
  -------         ENDPROC       L?0055
  -------         PROC          _NUM_CHAR
  D:0001H         SYMBOL        p
  D:0005H         SYMBOL        chr
BL51 BANKED LINKER/LOCATER V6.22.2.0                                                  10/29/2021  14:58:47  PAGE 67


  -------         DO            
  D:0007H         SYMBOL        contador
  -------         ENDDO         
  C:60AFH         LINE#         89
  C:60AFH         LINE#         90
  C:60AFH         LINE#         91
  C:60B1H         LINE#         92
  C:60B7H         LINE#         93
  C:60B7H         LINE#         95
  C:60BEH         LINE#         96
  C:60BFH         LINE#         97
  C:60C1H         LINE#         98
  C:60C1H         LINE#         99
  -------         ENDPROC       _NUM_CHAR
  -------         PROC          _CHECK_FECHAOUT_2
  X:001FH         SYMBOL        buffer
  -------         DO            
  X:0022H         SYMBOL        fecha_inicio
  X:0026H         SYMBOL        fecha_fin
  X:002AH         SYMBOL        datos_clk
  X:0030H         SYMBOL        temp
  -------         ENDDO         
  C:372EH         LINE#         103
  C:3739H         LINE#         104
  C:3739H         LINE#         110
  C:3742H         LINE#         111
  C:3771H         LINE#         112
  C:37B6H         LINE#         114
  C:37BFH         LINE#         115
  C:37D0H         LINE#         116
  C:37D9H         LINE#         118
  C:37E2H         LINE#         119
  C:37F3H         LINE#         120
  C:37FCH         LINE#         121
  C:381CH         LINE#         122
  C:381CH         LINE#         123
  C:3821H         LINE#         124
  C:3823H         LINE#         126
  C:3823H         LINE#         127
  C:382CH         LINE#         128
  C:3831H         LINE#         129
  C:3831H         LINE#         133
  C:3836H         LINE#         134
  -------         ENDPROC       _CHECK_FECHAOUT_2
  -------         PROC          _BLOQUE_HORARIO
  X:001FH         SYMBOL        buffer
  -------         DO            
  X:0022H         SYMBOL        Estado_Horario
  X:0023H         SYMBOL        HoraNow
  D:0006H         SYMBOL        Hora_Ticket
  -------         ENDDO         
  C:361EH         LINE#         135
  C:3629H         LINE#         136
  C:3629H         LINE#         143
  C:3632H         LINE#         144
  C:363AH         LINE#         145
  C:3642H         LINE#         146
BL51 BANKED LINKER/LOCATER V6.22.2.0                                                  10/29/2021  14:58:47  PAGE 68


  C:364BH         LINE#         147
  C:3679H         LINE#         152
  C:3682H         LINE#         156
  C:369AH         LINE#         157
  C:36B2H         LINE#         158
  C:36BBH         LINE#         159
  C:36FCH         LINE#         160
  C:370BH         LINE#         161
  C:370BH         LINE#         162
  C:3712H         LINE#         163
  C:3717H         LINE#         165
  C:3719H         LINE#         167
  C:3719H         LINE#         168
  C:3720H         LINE#         169
  C:3726H         LINE#         171
  C:3726H         LINE#         172
  C:372DH         LINE#         173
  -------         ENDPROC       _BLOQUE_HORARIO
  -------         PROC          LEE_TICKET
  -------         DO            
  X:015CH         SYMBOL        paso_una_vez
  X:015DH         SYMBOL        Ticket
  X:0167H         SYMBOL        Ticket_copia
  X:000EH         SYMBOL        fecha
  X:0171H         SYMBOL        fecha2
  X:0019H         SYMBOL        temp
  X:001AH         SYMBOL        temp2
  X:001BH         SYMBOL        vehiculo
  X:001CH         SYMBOL        tipo_vehiculo
  -------         ENDDO         
  C:1CF0H         LINE#         180
  C:1CF0H         LINE#         181
  C:1CF0H         LINE#         189
  C:1D16H         LINE#         190
  C:1D16H         LINE#         191
  C:1D16H         LINE#         194
  C:1D21H         LINE#         195
  C:1D21H         LINE#         196
  C:1D23H         LINE#         198
  C:1D29H         LINE#         199
  C:1D29H         LINE#         200
  C:1D32H         LINE#         201
  C:1D37H         LINE#         202
  C:1D3DH         LINE#         203
  C:1D3DH         LINE#         204
  C:1D42H         LINE#         205
  C:1D48H         LINE#         206
  C:1D48H         LINE#         207
  C:1D48H         LINE#         208
  C:1D48H         LINE#         212
  C:1D4BH         LINE#         214
  C:1D4BH         LINE#         215
  C:1D54H         LINE#         216
  C:1D59H         LINE#         217
  C:1D59H         LINE#         218
  C:1D59H         LINE#         220
  C:1D59H         LINE#         221
BL51 BANKED LINKER/LOCATER V6.22.2.0                                                  10/29/2021  14:58:47  PAGE 69


  C:1D59H         LINE#         222
  C:1D5CH         LINE#         227
  C:1D5CH         LINE#         228
  C:1D6DH         LINE#         229
  C:1D6DH         LINE#         230
  C:1D75H         LINE#         231
  C:1D75H         LINE#         233
  C:1D7EH         LINE#         234
  C:1D87H         LINE#         235
  C:1D90H         LINE#         236
  C:1D96H         LINE#         237
  C:1D9CH         LINE#         240
  C:1D9DH         LINE#         241
  C:1DA5H         LINE#         242
  C:1DA5H         LINE#         244
  C:1DB3H         LINE#         245
  C:1DC1H         LINE#         246
  C:1DCEH         LINE#         247
  C:1DD8H         LINE#         248
  C:1DD8H         LINE#         249
  C:1DDBH         LINE#         250
  C:1DE0H         LINE#         251
  C:1DE0H         LINE#         252
  C:1DE0H         LINE#         253
  C:1DE3H         LINE#         254
  C:1DE3H         LINE#         256
  C:1DECH         LINE#         257
  C:1DF5H         LINE#         258
  C:1DFEH         LINE#         263
  C:1E04H         LINE#         264
  C:1E05H         LINE#         266
  C:1E05H         LINE#         268
  C:1E08H         LINE#         269
  C:1E0DH         LINE#         270
  C:1E11H         LINE#         271
  C:1E1AH         LINE#         272
  C:1E20H         LINE#         273
  C:1E20H         LINE#         274
  C:1E20H         LINE#         278
  C:1E20H         LINE#         279
  C:1E23H         LINE#         280
  C:1E23H         LINE#         283
  C:1E2CH         LINE#         284
  C:1E31H         LINE#         285
  C:1E37H         LINE#         286
  C:1E41H         LINE#         288
  C:1E47H         LINE#         289
  C:1E47H         LINE#         290
  C:1E55H         LINE#         291
  C:1E55H         LINE#         292
  C:1E55H         LINE#         293
  C:1E55H         LINE#         296
  C:1E58H         LINE#         298
  C:1E58H         LINE#         303
  C:1E63H         LINE#         304
  C:1E63H         LINE#         306
  C:1E6CH         LINE#         308
BL51 BANKED LINKER/LOCATER V6.22.2.0                                                  10/29/2021  14:58:47  PAGE 70


  C:1E71H         LINE#         310
  C:1E7DH         LINE#         311
  C:1E85H         LINE#         312
  C:1EABH         LINE#         313
  C:1EABH         LINE#         314
  C:1EAEH         LINE#         315
  C:1EB0H         LINE#         317
  C:1EB0H         LINE#         318
  C:1EB3H         LINE#         319
  C:1EB3H         LINE#         320
  C:1EBCH         LINE#         321
  C:1EC4H         LINE#         322
  C:1ECDH         LINE#         324
  C:1ED6H         LINE#         325
  C:1EDEH         LINE#         326
  C:1EE7H         LINE#         327
  C:1EEFH         LINE#         328
  C:1EF8H         LINE#         330
  C:1EFDH         LINE#         331
  C:1F09H         LINE#         332
  C:1F09H         LINE#         333
  C:1F2FH         LINE#         334
  C:1F3EH         LINE#         336
  C:1F47H         LINE#         337
  C:1F50H         LINE#         341
  C:1F64H         LINE#         342
  C:1F6CH         LINE#         343
  C:1F75H         LINE#         344
  C:1F7DH         LINE#         345
  C:1F85H         LINE#         346
  C:1F8EH         LINE#         347
  C:1FB7H         LINE#         348
  C:1FC6H         LINE#         351
  C:1FDEH         LINE#         353
  C:1FF6H         LINE#         355
  C:200EH         LINE#         357
  C:2026H         LINE#         359
  C:203EH         LINE#         361
  C:2047H         LINE#         362
  C:2050H         LINE#         363
  C:2059H         LINE#         365
  C:2067H         LINE#         366
  C:2067H         LINE#         368
  C:2067H         LINE#         369
  C:2067H         LINE#         370
  C:2069H         LINE#         371
  C:2069H         LINE#         372
  C:2078H         LINE#         373
  C:2078H         LINE#         375
  C:207DH         LINE#         376
  C:207DH         LINE#         377
  C:207FH         LINE#         378
  C:207FH         LINE#         379
  C:208DH         LINE#         382
  C:2093H         LINE#         383
  C:2093H         LINE#         384
  C:20A1H         LINE#         385
BL51 BANKED LINKER/LOCATER V6.22.2.0                                                  10/29/2021  14:58:47  PAGE 71


  C:20A1H         LINE#         387
  C:20A1H         LINE#         388
  C:20A1H         LINE#         389
  C:20A4H         LINE#         390
  C:20A4H         LINE#         392
  C:20A4H         LINE#         393
  C:20A6H         LINE#         394
  C:20A9H         LINE#         395
  C:20AFH         LINE#         396
  C:20B5H         LINE#         398
  C:20B5H         LINE#         399
  C:20B5H         LINE#         400
  C:20B6H         LINE#         401
  C:20B6H         LINE#         404
  C:20DBH         LINE#         405
  C:20DBH         LINE#         406
  C:20DDH         LINE#         407
  C:20ECH         LINE#         408
  C:20ECH         LINE#         410
  C:20F4H         LINE#         411
  C:20F4H         LINE#         412
  C:20F6H         LINE#         413
  C:20F8H         LINE#         414
  C:2101H         LINE#         416
  C:2107H         LINE#         417
  C:210AH         LINE#         418
  C:210FH         LINE#         419
  C:210FH         LINE#         420
  C:210FH         LINE#         421
  C:2111H         LINE#         422
  C:2111H         LINE#         423
  C:2116H         LINE#         424
  C:2117H         LINE#         426
  C:2117H         LINE#         427
  C:211FH         LINE#         428
  C:211FH         LINE#         429
  C:2128H         LINE#         431
  C:2136H         LINE#         432
  C:213CH         LINE#         433
  C:2142H         LINE#         434
  C:2142H         LINE#         435
  C:2142H         LINE#         436
  C:2142H         LINE#         437
  -------         ENDPROC       LEE_TICKET
  -------         ENDMOD        VERPRINT

  -------         MODULE        ?C?FPADD
  C:0D61H         PUBLIC        ?C?FPADD
  C:0D5DH         PUBLIC        ?C?FPSUB
  -------         ENDMOD        ?C?FPADD

  -------         MODULE        ?C?FPMUL
  C:0E52H         PUBLIC        ?C?FPMUL
  -------         ENDMOD        ?C?FPMUL

  -------         MODULE        ?C?FCAST
  C:0F62H         PUBLIC        ?C?FCASTC
BL51 BANKED LINKER/LOCATER V6.22.2.0                                                  10/29/2021  14:58:47  PAGE 72


  C:0F5DH         PUBLIC        ?C?FCASTI
  C:0F58H         PUBLIC        ?C?FCASTL
  -------         ENDMOD        ?C?FCAST

  -------         MODULE        ?C?CASTF
  C:0F96H         PUBLIC        ?C?CASTF
  -------         ENDMOD        ?C?CASTF

  -------         MODULE        PRINTF
  X:0081H         PUBLIC        ?_PRINTF?BYTE
  X:0081H         PUBLIC        ?_SPRINTF?BYTE
  C:18D8H         PUBLIC        _PRINTF
  C:18D2H         PUBLIC        _SPRINTF
  -------         ENDMOD        PRINTF

  -------         MODULE        POW
  X:0029H         PUBLIC        ?_pow?BYTE
  C:2DB9H         PUBLIC        _pow
  -------         ENDMOD        POW

  -------         MODULE        ?C?CHKFLOAT
  C:1017H         PUBLIC        ?C?CHKFLOAT
  -------         ENDMOD        ?C?CHKFLOAT

  -------         MODULE        ?C?FPCMP
  C:1033H         PUBLIC        ?C?FPCMP
  C:1031H         PUBLIC        ?C?FPCMP3
  -------         ENDMOD        ?C?FPCMP

  -------         MODULE        ?C?FPNEG
  C:10AAH         PUBLIC        ?C?FPNEG
  -------         ENDMOD        ?C?FPNEG

  -------         MODULE        ?C?FPROUND
  C:10BBH         PUBLIC        ?C?FPROUND
  -------         ENDMOD        ?C?FPROUND

  -------         MODULE        ?C?FPCONVERT
  C:10F8H         PUBLIC        ?C?FPCONVERT
  -------         ENDMOD        ?C?FPCONVERT

  -------         MODULE        EXP
  C:4AB7H         PUBLIC        _EXP
  -------         ENDMOD        EXP

  -------         MODULE        LOG
  C:3307H         PUBLIC        _LOG
  C:3303H         PUBLIC        _LOG10
  -------         ENDMOD        LOG

  -------         MODULE        ?C?FPDIV
  C:1200H         PUBLIC        ?C?FPDIV
  -------         ENDMOD        ?C?FPDIV

  -------         MODULE        ?C?FTNPWR
  C:12CDH         PUBLIC        ?C?FTNPWR
  -------         ENDMOD        ?C?FTNPWR
BL51 BANKED LINKER/LOCATER V6.22.2.0                                                  10/29/2021  14:58:47  PAGE 73



  -------         MODULE        ?C?COPY
  C:142AH         PUBLIC        ?C?COPY
  -------         ENDMOD        ?C?COPY

  -------         MODULE        ?C?CLDPTR
  C:1450H         PUBLIC        ?C?CLDPTR
  -------         ENDMOD        ?C?CLDPTR

  -------         MODULE        ?C?CLDOPTR
  C:1469H         PUBLIC        ?C?CLDOPTR
  -------         ENDMOD        ?C?CLDOPTR

  -------         MODULE        ?C?CSTPTR
  C:1496H         PUBLIC        ?C?CSTPTR
  -------         ENDMOD        ?C?CSTPTR

  -------         MODULE        ?C?CSTOPTR
  C:14A8H         PUBLIC        ?C?CSTOPTR
  -------         ENDMOD        ?C?CSTOPTR

  -------         MODULE        ?C?IMUL
  C:14CAH         PUBLIC        ?C?IMUL
  -------         ENDMOD        ?C?IMUL

  -------         MODULE        ?C?IILDX
  C:14DCH         PUBLIC        ?C?IILDX
  -------         ENDMOD        ?C?IILDX

  -------         MODULE        ?C?LNEG
  C:14F2H         PUBLIC        ?C?LNEG
  -------         ENDMOD        ?C?LNEG

  -------         MODULE        ?C?ULCMP
  C:1500H         PUBLIC        ?C?ULCMP
  -------         ENDMOD        ?C?ULCMP

  -------         MODULE        ?C?ULSHR
  C:1511H         PUBLIC        ?C?ULSHR
  -------         ENDMOD        ?C?ULSHR

  -------         MODULE        ?C?LLDCODE
  C:1524H         PUBLIC        ?C?LLDCODE
  -------         ENDMOD        ?C?LLDCODE

  -------         MODULE        ?C?LLDXDATA0
  C:1534H         PUBLIC        ?C?LLDXDATA0
  -------         ENDMOD        ?C?LLDXDATA0

  -------         MODULE        ?C?LLDCODE0
  C:1540H         PUBLIC        ?C?LLDCODE0
  -------         ENDMOD        ?C?LLDCODE0

  -------         MODULE        ?C?LSTXDATA
  C:1550H         PUBLIC        ?C?LSTXDATA
  -------         ENDMOD        ?C?LSTXDATA

BL51 BANKED LINKER/LOCATER V6.22.2.0                                                  10/29/2021  14:58:47  PAGE 74


  -------         MODULE        ?C?LSTKXDATA
  C:155CH         PUBLIC        ?C?LSTKXDATA
  -------         ENDMOD        ?C?LSTKXDATA

  -------         MODULE        ?C?PLDIXDATA
  C:158DH         PUBLIC        ?C?PLDIXDATA
  -------         ENDMOD        ?C?PLDIXDATA

  -------         MODULE        ?C?PSTXDATA
  C:15A4H         PUBLIC        ?C?PSTXDATA
  -------         ENDMOD        ?C?PSTXDATA

  -------         MODULE        ?C?CCASE
  C:15ADH         PUBLIC        ?C?CCASE
  -------         ENDMOD        ?C?CCASE

  -------         MODULE        STRCAT
  X:0050H         PUBLIC        ?_strcat?BYTE
  C:53FEH         PUBLIC        _strcat
  -------         ENDMOD        STRCAT

  -------         MODULE        STRNCAT
  X:0048H         PUBLIC        ?_strncat?BYTE
  C:4165H         PUBLIC        _strncat
  -------         ENDMOD        STRNCAT

  -------         MODULE        ?C?STRCMP
  C:1751H         PUBLIC        ?C?STRCMP
  -------         ENDMOD        ?C?STRCMP

  -------         MODULE        ?C?STRCPY
  C:183AH         PUBLIC        ?C?STRCPY
  -------         ENDMOD        ?C?STRCPY

  -------         MODULE        STRNCPY
  X:001FH         PUBLIC        ?_strncpy?BYTE
  C:5469H         PUBLIC        _strncpy
  -------         ENDMOD        STRNCPY

  -------         MODULE        STRLEN
  C:000EH         PUBLIC        _STRLEN
  -------         ENDMOD        STRLEN

  -------         MODULE        STRSTR
  X:001FH         PUBLIC        ?_strstr?BYTE
  C:42EEH         PUBLIC        _strstr
  -------         ENDMOD        STRSTR

  -------         MODULE        STRTOK
  X:004AH         PUBLIC        ?_strtok?BYTE
  C:3E0AH         PUBLIC        _strtok
  -------         ENDMOD        STRTOK

  -------         MODULE        ATOI
  C:3EEEH         PUBLIC        _atoi
  -------         ENDMOD        ATOI

BL51 BANKED LINKER/LOCATER V6.22.2.0                                                  10/29/2021  14:58:47  PAGE 75


  -------         MODULE        ?C?ILDIX
  C:1857H         PUBLIC        ?C?ILDIX
  -------         ENDMOD        ?C?ILDIX

  -------         MODULE        ISDIGIT
  C:61E4H         PUBLIC        _isdigit
  -------         ENDMOD        ISDIGIT

  -------         MODULE        ISSPACE
  C:6124H         PUBLIC        _isspace
  -------         ENDMOD        ISSPACE

  -------         MODULE        STRSPN
  X:0050H         PUBLIC        ?_strspn?BYTE
  C:5129H         PUBLIC        _strspn
  -------         ENDMOD        STRSPN

  -------         MODULE        STRPBRK
  X:0050H         PUBLIC        ?_strpbrk?BYTE
  C:51ADH         PUBLIC        _strpbrk
  -------         ENDMOD        STRPBRK

Program Size: data=158.4 xdata=386 code=25201
LINK/LOCATE RUN COMPLETE.  0 WARNING(S),  0 ERROR(S)
