BL51 BANKED LINKER/LOCATER V6.22.2.0                                                    10/25/2021  16:12:58  PAGE 1


BL51 BANKED LINKER/LOCATER V6.22.2.0, INVOKED BY:
C:\KEIL_V5\C51\BIN\BL51.EXE .\Objects\main.obj, .\Objects\Clock.obj, .\Objects\delay.obj, .\Objects\eeprom.obj, .\Object
>> s\io_sensores.obj, .\Objects\monitor.obj, .\Objects\num_serie.obj, .\Objects\pantallas.obj, .\Objects\prog.obj, .\Obj
>> ects\pto_paralelo.obj, .\Objects\tibbo.obj, .\Objects\uart.obj, .\Objects\Accescan.obj, .\Objects\verprint.obj TO .\O
>> bjects\VRFCDOR_PRINT_100 PRINT (.\Listings\VRFCDOR_PRINT_100.m51) RAMSIZE (256)


MEMORY MODEL: LARGE WITH FLOATING POINT ARITHMETIC


INPUT MODULES INCLUDED:
  .\Objects\main.obj (MAIN)
  .\Objects\Clock.obj (CLOCK)
  .\Objects\delay.obj (DELAY)
  .\Objects\eeprom.obj (EEPROM)
  .\Objects\io_sensores.obj (IO_SENSORES)
  .\Objects\monitor.obj (MONITOR)
  .\Objects\num_serie.obj (NUM_SERIE)
  .\Objects\pantallas.obj (PANTALLAS)
  .\Objects\prog.obj (PROG)
  .\Objects\pto_paralelo.obj (PTO_PARALELO)
  .\Objects\tibbo.obj (TIBBO)
  .\Objects\uart.obj (UART)
  .\Objects\Accescan.obj (ACCESCAN)
  .\Objects\verprint.obj (VERPRINT)
  C:\KEIL_V5\C51\LIB\C51FPL.LIB (?C?FPADD)
  C:\KEIL_V5\C51\LIB\C51FPL.LIB (?C?FPMUL)
  C:\KEIL_V5\C51\LIB\C51FPL.LIB (?C?FCAST)
  C:\KEIL_V5\C51\LIB\C51FPL.LIB (?C?CASTF)
  C:\KEIL_V5\C51\LIB\C51FPL.LIB (PRINTF)
  C:\KEIL_V5\C51\LIB\C51FPL.LIB (POW)
  C:\KEIL_V5\C51\LIB\C51FPL.LIB (?C?FPGETOPN)
  C:\KEIL_V5\C51\LIB\C51FPL.LIB (?C?CHKFLOAT)
  C:\KEIL_V5\C51\LIB\C51FPL.LIB (?C?FPCMP)
  C:\KEIL_V5\C51\LIB\C51FPL.LIB (?C?FPNEG)
  C:\KEIL_V5\C51\LIB\C51FPL.LIB (?C?FPROUND)
  C:\KEIL_V5\C51\LIB\C51FPL.LIB (?C?FPCONVERT)
  C:\KEIL_V5\C51\LIB\C51FPL.LIB (EXP)
  C:\KEIL_V5\C51\LIB\C51FPL.LIB (LOG)
  C:\KEIL_V5\C51\LIB\C51FPL.LIB (?C?FPDIV)
  C:\KEIL_V5\C51\LIB\C51FPL.LIB (?C?FTNPWR)
  C:\KEIL_V5\C51\LIB\C51FPL.LIB (?C?FPSERIES)
  C:\KEIL_V5\C51\LIB\C51L.LIB (?C_STARTUP)
  C:\KEIL_V5\C51\LIB\C51L.LIB (?C?COPY)
  C:\KEIL_V5\C51\LIB\C51L.LIB (?C?CLDPTR)
  C:\KEIL_V5\C51\LIB\C51L.LIB (?C?CLDOPTR)
  C:\KEIL_V5\C51\LIB\C51L.LIB (?C?CSTPTR)
  C:\KEIL_V5\C51\LIB\C51L.LIB (?C?CSTOPTR)
  C:\KEIL_V5\C51\LIB\C51L.LIB (?C?IMUL)
  C:\KEIL_V5\C51\LIB\C51L.LIB (?C?IILDX)
  C:\KEIL_V5\C51\LIB\C51L.LIB (?C?LNEG)
  C:\KEIL_V5\C51\LIB\C51L.LIB (?C?ULCMP)
  C:\KEIL_V5\C51\LIB\C51L.LIB (?C?LLDCODE)
  C:\KEIL_V5\C51\LIB\C51L.LIB (?C?LLDXDATA0)
  C:\KEIL_V5\C51\LIB\C51L.LIB (?C?LLDCODE0)
  C:\KEIL_V5\C51\LIB\C51L.LIB (?C?LSTXDATA)
  C:\KEIL_V5\C51\LIB\C51L.LIB (?C?LSTKXDATA)
  C:\KEIL_V5\C51\LIB\C51L.LIB (?C?PLDIXDATA)
BL51 BANKED LINKER/LOCATER V6.22.2.0                                                  10/25/2021  16:12:58  PAGE 2


  C:\KEIL_V5\C51\LIB\C51L.LIB (?C?PSTXDATA)
  C:\KEIL_V5\C51\LIB\C51L.LIB (?C?CCASE)
  C:\KEIL_V5\C51\LIB\C51L.LIB (STRCAT)
  C:\KEIL_V5\C51\LIB\C51L.LIB (STRNCAT)
  C:\KEIL_V5\C51\LIB\C51L.LIB (?C?STRCMP)
  C:\KEIL_V5\C51\LIB\C51L.LIB (?C?STRCPY)
  C:\KEIL_V5\C51\LIB\C51L.LIB (STRNCPY)
  C:\KEIL_V5\C51\LIB\C51L.LIB (STRLEN)
  C:\KEIL_V5\C51\LIB\C51L.LIB (STRSTR)
  C:\KEIL_V5\C51\LIB\C51L.LIB (STRTOK)
  C:\KEIL_V5\C51\LIB\C51L.LIB (ATOI)
  C:\KEIL_V5\C51\LIB\C51L.LIB (?C_INIT)
  C:\KEIL_V5\C51\LIB\C51L.LIB (?C?ILDIX)
  C:\KEIL_V5\C51\LIB\C51L.LIB (ISDIGIT)
  C:\KEIL_V5\C51\LIB\C51L.LIB (ISSPACE)
  C:\KEIL_V5\C51\LIB\C51L.LIB (STRSPN)
  C:\KEIL_V5\C51\LIB\C51L.LIB (STRPBRK)


LINK MAP OF MODULE:  .\Objects\VRFCDOR_PRINT_100 (MAIN)


            TYPE    BASE      LENGTH    RELOCATION   SEGMENT NAME
            -----------------------------------------------------

            * * * * * * *   D A T A   M E M O R Y   * * * * * * *
            REG     0000H     0008H     ABSOLUTE     "REG BANK 0"
            DATA    0008H     0005H     UNIT         ?DT?UART
            DATA    000DH     0005H     UNIT         _DATA_GROUP_
                    0012H     000EH                  *** GAP ***
            BIT     0020H.0   0001H.1   UNIT         _BIT_GROUP_
            BIT     0021H.1   0000H.1   UNIT         ?BI?MAIN
            BIT     0021H.2   0000H.1   UNIT         ?BI?EEPROM
            BIT     0021H.3   0000H.1   UNIT         ?BI?UART
                    0021H.4   0000H.4                *** GAP ***
            IDATA   0022H     008AH     UNIT         ?ID?MAIN
            IDATA   00ACH     0001H     UNIT         ?STACK

            * * * * * * *  X D A T A   M E M O R Y  * * * * * * *
            XDATA   0000H     00B5H     UNIT         _XDATA_GROUP_
            XDATA   00B5H     005FH     UNIT         ?XD?PROG
            XDATA   0114H     0048H     UNIT         ?XD?MAIN
            XDATA   015CH     0016H     UNIT         ?XD?VERPRINT
            XDATA   0172H     0012H     UNIT         ?XD?_CHECK_FECHAOUT_2?VERPRINT
            XDATA   0184H     0003H     UNIT         ?XD?_BLOCK_READ_CLOCK_HEX?CLOCK
            XDATA   0187H     0003H     UNIT         ?XD?EEPROM
            XDATA   018AH     0003H     UNIT         ?XD?STRTOK
            XDATA   018DH     0001H     UNIT         ?XD?CLOCK

            * * * * * * *   C O D E   M E M O R Y   * * * * * * *
            CODE    0000H     0003H     ABSOLUTE     
            CODE    0003H     0008H     UNIT         ?PR?P_CK?CLOCK
            CODE    000BH     0003H     ABSOLUTE     
            CODE    000EH     0015H     UNIT         ?PR?_STRLEN?STRLEN
            CODE    0023H     0003H     ABSOLUTE     
            CODE    0026H     0D34H     UNIT         ?CO?PROG
            CODE    0D5AH     0B00H     UNIT         ?C?LIB_CODE
BL51 BANKED LINKER/LOCATER V6.22.2.0                                                  10/25/2021  16:12:58  PAGE 3


            CODE    185AH     0483H     UNIT         ?PR?PRINTF?PRINTF
            CODE    1CDDH     03A7H     UNIT         ?PR?_VALIDA_TRAMA_PTO?ACCESCAN
            CODE    2084H     0338H     UNIT         ?PR?LEE_TICKET?VERPRINT
            CODE    23BCH     02D0H     UNIT         ?PR?_TWO_BYTEHEX_DECIMAL?CLOCK
            CODE    268CH     023AH     UNIT         ?PR?MENU?PROG
            CODE    28C6H     01D8H     UNIT         ?PR?_BLOCK_READ_CLOCK_ASCII?CLOCK
            CODE    2A9EH     0166H     UNIT         ?PR?_POW?POW
            CODE    2C04H     0148H     UNIT         ?PR?_TRAMA_PRINT_COD_BARRAS?PTO_PARALELO
            CODE    2D4CH     013FH     UNIT         ?CO?VERPRINT
            CODE    2E8BH     013EH     UNIT         ?PR?PROG_SIN_COBRO?PROG
            CODE    2FC9H     012EH     UNIT         ?PR?_PANTALLALCD_LINEA_2?PANTALLAS
            CODE    30F7H     0129H     UNIT         ?PR?LOG?LOG
            CODE    3220H     0110H     UNIT         ?PR?LOAD_AND_SEND_ID_COD?PTO_PARALELO
            CODE    3330H     00FCH     UNIT         ?PR?PROG_DEBUG?PROG
            CODE    342CH     00FCH     UNIT         ?PR?PROG_USE_LPR?PROG
            CODE    3528H     00FCH     UNIT         ?PR?TIPO_PANTALLA?PROG
            CODE    3624H     00FCH     UNIT         ?PR?PROG_COMPARACION_ACTIVA?PROG
            CODE    3720H     00FCH     UNIT         ?PR?PROG_QR_BARRAS?PROG
            CODE    381CH     00FBH     UNIT         ?CO?PANTALLAS
            CODE    3917H     00E7H     UNIT         ?PR?_CMD_LPR_SALIDA_PRINT?MONITOR
            CODE    39FEH     00E4H     UNIT         ?PR?_STRTOK?STRTOK
            CODE    3AE2H     00DBH     UNIT         ?PR?_ATOI?ATOI
            CODE    3BBDH     00D6H     UNIT         ?PR?_CMD_LPR_SALIDA_WIEGAND?MONITOR
            CODE    3C93H     00C6H     UNIT         ?PR?SHOW?PROG
            CODE    3D59H     00C5H     UNIT         ?PR?_STRNCAT?STRNCAT
            CODE    3E1EH     00C4H     UNIT         ?PR?_BLOCK_READ_CLOCK?CLOCK
            CODE    3EE2H     00BFH     UNIT         ?PR?_STRSTR?STRSTR
            CODE    3FA1H     00BDH     UNIT         ?PR?PROG_COD_PARK?PROG
            CODE    405EH     00BDH     UNIT         ?PR?PROG_TIEMPO_GRACIA?PROG
            CODE    411BH     00BBH     UNIT         ?PR?_CHECK_FECHAOUT_2?VERPRINT
            CODE    41D6H     00B9H     UNIT         ?PR?MAIN?MAIN
            CODE    428FH     00B6H     UNIT         ?PR?PROG_ID_CLIENTE?PROG
            CODE    4345H     00B4H     UNIT         ?PR?_SEND_PORT?PTO_PARALELO
            CODE    43F9H     00B2H     UNIT         ?C_INITSEG
            CODE    44ABH     00A6H     UNIT         ?PR?_BLOCK_READ_CLOCK_HEX?CLOCK
            CODE    4551H     00A0H     UNIT         ?CO?IO_SENSORES
            CODE    45F1H     009BH     UNIT         ?PR?_VALIDA_TRAMA_MONITOR?MONITOR
            CODE    468CH     009AH     UNIT         ?PR?EXP?EXP
            CODE    4726H     0097H     UNIT         ?PR?_RECIBE_PORT?PTO_PARALELO
            CODE    47BDH     0095H     UNIT         ?PR?_RECIBE_CMD_MONITOR?MONITOR
            CODE    4852H     0090H     UNIT         ?PR?_LEE_CLK?CLOCK
            CODE    48E2H     0090H     UNIT         ?PR?_PANTALLALCD?PANTALLAS
            CODE    4972H     0090H     UNIT         ?PR?_GETOPTION?PROG
            CODE    4A02H     008FH     UNIT         ?PR?_BLOCK_WRITE_CLOCK_ASCII?CLOCK
            CODE    4A91H     008CH     UNIT         ?C_C51STARTUP
            CODE    4B1DH     008AH     UNIT         ?PR?VARIABLE_INICIO?MAIN
            CODE    4BA7H     008AH     UNIT         ?PR?_ESCRIBIRMEMORIA?EEPROM
            CODE    4C31H     0088H     UNIT         ?PR?_SEND_PORTERR?PTO_PARALELO
            CODE    4CB9H     0088H     UNIT         ?PR?RX_DATA?TIBBO
            CODE    4D41H     0085H     UNIT         ?PR?COM_ISR?UART
            CODE    4DC6H     0084H     UNIT         ?PR?_STRSPN?STRSPN
            CODE    4E4AH     0081H     UNIT         ?PR?_STRPBRK?STRPBRK
            CODE    4ECBH     0080H     UNIT         ?PR?_INGRESADATO?PROG
            CODE    4F4BH     0073H     UNIT         ?PR?MSJ_LCD_INFORMATIVO?IO_SENSORES
            CODE    4FBEH     006FH     UNIT         ?PR?VALIDASENSORESPASO?IO_SENSORES
            CODE    502DH     006EH     UNIT         ?PR?_DEBUGBUFFERMF?TIBBO
            CODE    509BH     006BH     UNIT         ?PR?_STRCAT?STRCAT
BL51 BANKED LINKER/LOCATER V6.22.2.0                                                  10/25/2021  16:12:58  PAGE 4


            CODE    5106H     0068H     UNIT         ?PR?_STRNCPY?STRNCPY
            CODE    516EH     0062H     UNIT         ?PR?_LISTACOMANDOS?PROG
            CODE    51D0H     005EH     UNIT         ?PR?_RASPBERRY_DATA?PANTALLAS
            CODE    522EH     0058H     UNIT         ?PR?_LEERMEMORIA?EEPROM
            CODE    5286H     0057H     UNIT         ?CO?TIBBO
            CODE    52DDH     0053H     UNIT         ?PR?_BYTEHEX_DECIMAL?CLOCK
            CODE    5330H     004DH     UNIT         ?PR?L_D_M?EEPROM
            CODE    537DH     0048H     UNIT         ?PR?_TX_AUX?TIBBO
            CODE    53C5H     0047H     UNIT         ?PR?PROG_CLIENTE?PROG
            CODE    540CH     0047H     UNIT         ?PR?PROG_NIT?PROG
            CODE    5453H     0047H     UNIT         ?PR?PROG_NOM_PARQ?PROG
            CODE    549AH     0047H     UNIT         ?PR?PROG_DIRECCION?PROG
            CODE    54E1H     0047H     UNIT         ?PR?PROG_MSJ1?PROG
            CODE    5528H     0047H     UNIT         ?PR?PROG_MSJ2?PROG
            CODE    556FH     0047H     UNIT         ?PR?PROG_MSJ3?PROG
            CODE    55B6H     0047H     UNIT         ?PR?PROG_MSJ4?PROG
            CODE    55FDH     0047H     UNIT         ?PR?PROG_MSJ5?PROG
            CODE    5644H     0047H     UNIT         ?PR?PROG_MSJ6?PROG
            CODE    568BH     0047H     UNIT         ?PR?PROG_MSJ7?PROG
            CODE    56D2H     0047H     UNIT         ?PR?_DEBUG_CHR_TIBBO?TIBBO
            CODE    5719H     0046H     UNIT         ?PR?_LCD_TXT_NUM_CHAR?PANTALLAS
            CODE    575FH     0045H     UNIT         ?PR?_VALIDARCLAVE?PROG
            CODE    57A4H     0041H     UNIT         ?PR?_TWO_ONE?CLOCK
            CODE    57E5H     0041H     UNIT         ?PR?_MONITOR_CHR?MONITOR
            CODE    5826H     0040H     UNIT         ?PR?_GETCMD?PROG
            CODE    5866H     003FH     UNIT         ?PR?_EB_CLK?CLOCK
            CODE    58A5H     003FH     UNIT         ?PR?_WR_EEPROM?EEPROM
            CODE    58E4H     003FH     UNIT         ?PR?FORMATO_EEPROM?EEPROM
            CODE    5923H     003EH     UNIT         ?PR?_PUTCHAR?MAIN
            CODE    5961H     003EH     UNIT         ?PR?_DEBUG_TXT_TIBBO?TIBBO
            CODE    599FH     003EH     UNIT         ?PR?COM_BAUDRATE?UART
            CODE    59DDH     003CH     UNIT         ?PR?CONFIRMACION?EEPROM
            CODE    5A19H     003CH     UNIT         ?PR?_LCD_TXT?PANTALLAS
            CODE    5A55H     003BH     UNIT         ?PR?_COM_PUTCHAR?UART
            CODE    5A90H     0039H     UNIT         ?PR?_RD_EEPROM?EEPROM
            CODE    5AC9H     0035H     UNIT         ?PR?RELOJ_PANTALLA_LCD?PANTALLAS
            CODE    5AFEH     002CH     UNIT         ?PR?LOAD_AND_SEND_INFO_RELOJ?PTO_PARALELO
            CODE    5B2AH     002AH     UNIT         ?PR?COM_INITIALIZE?UART
            CODE    5B54H     0028H     UNIT         ?PR?_WR_CLK?CLOCK
            CODE    5B7CH     0026H     UNIT         ?PR?COM_GETCHAR?UART
            CODE    5BA2H     0024H     UNIT         ?PR?_NUM_NUM?VERPRINT
            CODE    5BC6H     0022H     UNIT         ?PR?_E_D_M?EEPROM
            CODE    5BE8H     0020H     UNIT         ?PR?ACKD?EEPROM
            CODE    5C08H     0020H     UNIT         ?PR?ACK_LECT?EEPROM
            CODE    5C28H     0020H     UNIT         ?PR?TIME_BIT?TIBBO
            CODE    5C48H     001FH     UNIT         ?PR?VALIDASENSOR?IO_SENSORES
            CODE    5C67H     001FH     UNIT         ?PR?_NUM_CHAR?VERPRINT
            CODE    5C86H     001EH     UNIT         ?PR?_BCD_HEX?CLOCK
            CODE    5CA4H     001EH     UNIT         ?PR?_TX_CHRLCD?PANTALLAS
            CODE    5CC2H     001BH     UNIT         ?PR?_DELAY_1MS?DELAY
            CODE    5CDDH     001AH     UNIT         ?PR?TIME_MBIT?TIBBO
            CODE    5CF7H     0019H     UNIT         ?PR?TIMER0_INT?MAIN
            CODE    5D10H     0018H     UNIT         ?CO?ACCESCAN
            CODE    5D28H     0017H     UNIT         ?PR?DISPLAYCURSOR?PROG
            CODE    5D3FH     0014H     UNIT         ?PR?_ISSPACE?ISSPACE
            CODE    5D53H     0012H     UNIT         ?PR?_DELAY_20US?DELAY
            CODE    5D65H     0012H     UNIT         ?PR?START?EEPROM
BL51 BANKED LINKER/LOCATER V6.22.2.0                                                  10/25/2021  16:12:58  PAGE 5


            CODE    5D77H     0012H     UNIT         ?PR?DIR_BOARD?IO_SENSORES
            CODE    5D89H     0012H     UNIT         ?PR?PULSO_BUS?PTO_PARALELO
            CODE    5D9BH     0012H     UNIT         ?PR?COM_RBUFLEN?UART
            CODE    5DADH     0012H     UNIT         ?PR?COM_TBUFLEN?UART
            CODE    5DBFH     0010H     UNIT         ?PR?INI_TIMER?MAIN
            CODE    5DCFH     0010H     UNIT         ?PR?INICIA_BOARD?MAIN
            CODE    5DDFH     0010H     UNIT         ?PR?_GRABA_SERIE_ASCII_HEX?NUM_SERIE
            CODE    5DEFH     0010H     UNIT         ?CO?PTO_PARALELO
            CODE    5DFFH     000FH     UNIT         ?PR?_ISDIGIT?ISDIGIT
            CODE    5E0EH     000EH     UNIT         ?PR?CLEAR_BUFFER?UART
            CODE    5E1CH     000CH     UNIT         ?PR?_GETKEY?MAIN
            CODE    5E28H     000AH     UNIT         ?PR?COND_INI_PTO?PTO_PARALELO
            CODE    5E32H     0009H     UNIT         ?PR?STOP?EEPROM
            CODE    5E3BH     0009H     UNIT         ?PR?DEBUG_DIVIDIR_TEXTO?TIBBO
            CODE    5E44H     0007H     UNIT         ?PR?COND_INI_CLOCK?CLOCK
            CODE    5E4BH     0007H     UNIT         ?PR?SEL_FUNCION?IO_SENSORES
            CODE    5E52H     0007H     UNIT         ?PR?SEL_AUTO?IO_SENSORES
            CODE    5E59H     0007H     UNIT         ?PR?SEL_SENSOR2?IO_SENSORES
            CODE    5E60H     0007H     UNIT         ?PR?SEL_SENSOR1?IO_SENSORES
            CODE    5E67H     0007H     UNIT         ?PR?SEL_DIR1?IO_SENSORES
            CODE    5E6EH     0007H     UNIT         ?PR?SEL_DIR2?IO_SENSORES
            CODE    5E75H     0006H     UNIT         ?PR?P_ME?EEPROM
            CODE    5E7BH     0005H     UNIT         ?PR?ON_TIMER0_INTERRUP?MAIN
            CODE    5E80H     0005H     UNIT         ?PR?COND_INI_TIBBO?TIBBO
            CODE    5E85H     0003H     UNIT         ?PR?OFF_TIMER0_INTERRUP?MAIN
            CODE    5E88H     0003H     UNIT         ?CO?MAIN
            CODE    5E8BH     0001H     UNIT         ?PR?DELAY?DELAY



OVERLAY MAP OF MODULE:   .\Objects\VRFCDOR_PRINT_100 (MAIN)


SEGMENT                                             BIT_GROUP          DATA_GROUP          XDATA_GROUP
  +--> CALLED SEGMENT                            START    LENGTH     START    LENGTH     START    LENGTH
--------------------------------------------------------------------------------------------------------
?C_C51STARTUP                                    -----    -----      -----    -----      -----    -----
  +--> ?PR?MAIN?MAIN
  +--> ?C_INITSEG

?PR?MAIN?MAIN                                    -----    -----      -----    -----      0000H    000EH
  +--> ?PR?INI_TIMER?MAIN
  +--> ?PR?ON_TIMER0_INTERRUP?MAIN
  +--> ?PR?COM_INITIALIZE?UART
  +--> ?PR?COM_BAUDRATE?UART
  +--> ?PR?INICIA_BOARD?MAIN
  +--> ?PR?TIME_BIT?TIBBO
  +--> ?PR?TIME_MBIT?TIBBO
  +--> ?PR?_TX_AUX?TIBBO
  +--> ?PR?SEL_FUNCION?IO_SENSORES
  +--> ?PR?MENU?PROG
  +--> ?PR?VARIABLE_INICIO?MAIN
  +--> ?PR?_RECIBE_CMD_MONITOR?MONITOR
  +--> ?PR?DEBUG_DIVIDIR_TEXTO?TIBBO
  +--> ?PR?_VALIDA_TRAMA_MONITOR?MONITOR
  +--> ?PR?_DEBUGBUFFERMF?TIBBO
  +--> ?PR?_DEBUG_TXT_TIBBO?TIBBO
BL51 BANKED LINKER/LOCATER V6.22.2.0                                                  10/25/2021  16:12:58  PAGE 6


  +--> ?PR?LEE_TICKET?VERPRINT
  +--> ?PR?_RECIBE_PORT?PTO_PARALELO
  +--> ?PR?_DEBUG_CHR_TIBBO?TIBBO
  +--> ?CO?MAIN
  +--> ?PR?_VALIDA_TRAMA_PTO?ACCESCAN
  +--> ?PR?MSJ_LCD_INFORMATIVO?IO_SENSORES

?PR?COM_INITIALIZE?UART                          -----    -----      -----    -----      -----    -----
  +--> ?PR?COM_BAUDRATE?UART

?PR?COM_BAUDRATE?UART                            -----    -----      -----    -----      -----    -----
  +--> ?PR?_RD_EEPROM?EEPROM

?PR?_RD_EEPROM?EEPROM                            -----    -----      -----    -----      -----    -----
  +--> ?PR?START?EEPROM
  +--> ?PR?ACK_LECT?EEPROM
  +--> ?PR?_E_D_M?EEPROM
  +--> ?PR?ACKD?EEPROM
  +--> ?PR?L_D_M?EEPROM
  +--> ?PR?STOP?EEPROM

?PR?ACK_LECT?EEPROM                              -----    -----      -----    -----      -----    -----
  +--> ?PR?_E_D_M?EEPROM

?PR?_E_D_M?EEPROM                                -----    -----      -----    -----      -----    -----
  +--> ?PR?P_ME?EEPROM

?PR?ACKD?EEPROM                                  -----    -----      -----    -----      -----    -----
  +--> ?PR?_E_D_M?EEPROM

?PR?INICIA_BOARD?MAIN                            -----    -----      -----    -----      -----    -----
  +--> ?PR?COND_INI_TIBBO?TIBBO
  +--> ?PR?COND_INI_CLOCK?CLOCK
  +--> ?PR?COND_INI_PTO?PTO_PARALELO

?PR?_TX_AUX?TIBBO                                -----    -----      -----    -----      -----    -----
  +--> ?PR?TIME_BIT?TIBBO

?PR?MENU?PROG                                    -----    -----      -----    -----      000EH    0031H
  +--> ?CO?PROG
  +--> ?PR?PRINTF?PRINTF
  +--> ?PR?CLEAR_BUFFER?UART
  +--> ?PR?_INGRESADATO?PROG
  +--> ?PR?_GETCMD?PROG
  +--> ?PR?_VALIDARCLAVE?PROG
  +--> ?PR?DISPLAYCURSOR?PROG
  +--> ?PR?_STRLEN?STRLEN
  +--> ?PR?_GETOPTION?PROG
  +--> ?PR?_STRCAT?STRCAT
  +--> ?PR?_LISTACOMANDOS?PROG
  +--> ?PR?PROG_ID_CLIENTE?PROG
  +--> ?PR?PROG_COD_PARK?PROG
  +--> ?PR?PROG_TIEMPO_GRACIA?PROG
  +--> ?PR?PROG_SIN_COBRO?PROG
  +--> ?PR?PROG_DEBUG?PROG
  +--> ?PR?PROG_USE_LPR?PROG
  +--> ?PR?TIPO_PANTALLA?PROG
BL51 BANKED LINKER/LOCATER V6.22.2.0                                                  10/25/2021  16:12:58  PAGE 7


  +--> ?PR?PROG_COMPARACION_ACTIVA?PROG
  +--> ?PR?PROG_QR_BARRAS?PROG
  +--> ?PR?PROG_CLIENTE?PROG
  +--> ?PR?PROG_NIT?PROG
  +--> ?PR?PROG_NOM_PARQ?PROG
  +--> ?PR?PROG_DIRECCION?PROG
  +--> ?PR?PROG_MSJ1?PROG
  +--> ?PR?PROG_MSJ2?PROG
  +--> ?PR?PROG_MSJ3?PROG
  +--> ?PR?PROG_MSJ4?PROG
  +--> ?PR?PROG_MSJ5?PROG
  +--> ?PR?PROG_MSJ6?PROG
  +--> ?PR?PROG_MSJ7?PROG
  +--> ?PR?SHOW?PROG

?PR?PRINTF?PRINTF                                0020H.0  0001H.1    000DH    0005H      0081H    0030H
  +--> ?PR?_PUTCHAR?MAIN

?PR?_PUTCHAR?MAIN                                -----    -----      -----    -----      00B1H    0003H
  +--> ?PR?_COM_PUTCHAR?UART

?PR?_COM_PUTCHAR?UART                            -----    -----      -----    -----      00B4H    0001H
  +--> ?PR?COM_TBUFLEN?UART

?PR?_INGRESADATO?PROG                            -----    -----      -----    -----      007DH    0004H
  +--> ?PR?_GETKEY?MAIN
  +--> ?CO?PROG
  +--> ?PR?PRINTF?PRINTF
  +--> ?PR?_PUTCHAR?MAIN

?PR?_GETKEY?MAIN                                 -----    -----      -----    -----      -----    -----
  +--> ?PR?COM_GETCHAR?UART

?PR?COM_GETCHAR?UART                             -----    -----      -----    -----      -----    -----
  +--> ?PR?COM_RBUFLEN?UART

?PR?_GETCMD?PROG                                 -----    -----      -----    -----      003FH    0007H
  +--> ?CO?PROG
  +--> ?PR?_STRTOK?STRTOK

?PR?_STRTOK?STRTOK                               -----    -----      -----    -----      004AH    0006H
  +--> ?PR?_STRSPN?STRSPN
  +--> ?PR?_STRPBRK?STRPBRK

?PR?_STRSPN?STRSPN                               -----    -----      -----    -----      0050H    0008H

?PR?_STRPBRK?STRPBRK                             -----    -----      -----    -----      0050H    0009H

?PR?_VALIDARCLAVE?PROG                           -----    -----      -----    -----      003FH    000AH

?PR?DISPLAYCURSOR?PROG                           -----    -----      -----    -----      -----    -----
  +--> ?CO?PROG
  +--> ?PR?PRINTF?PRINTF

?PR?_GETOPTION?PROG                              -----    -----      -----    -----      003FH    000BH
  +--> ?CO?PROG
  +--> ?PR?_STRTOK?STRTOK
BL51 BANKED LINKER/LOCATER V6.22.2.0                                                  10/25/2021  16:12:58  PAGE 8



?PR?_STRCAT?STRCAT                               -----    -----      -----    -----      0050H    0009H

?PR?_LISTACOMANDOS?PROG                          -----    -----      -----    -----      003FH    0007H

?PR?PROG_ID_CLIENTE?PROG                         -----    -----      -----    -----      003FH    000CH
  +--> ?PR?_RD_EEPROM?EEPROM
  +--> ?CO?PROG
  +--> ?PR?PRINTF?PRINTF
  +--> ?PR?_INGRESADATO?PROG
  +--> ?PR?_ATOI?ATOI
  +--> ?PR?_WR_EEPROM?EEPROM

?PR?_ATOI?ATOI                                   0020H.0  0000H.1    -----    -----      004BH    0005H
  +--> ?PR?_ISSPACE?ISSPACE
  +--> ?PR?_ISDIGIT?ISDIGIT

?PR?_WR_EEPROM?EEPROM                            -----    -----      -----    -----      -----    -----
  +--> ?PR?START?EEPROM
  +--> ?PR?ACKD?EEPROM
  +--> ?PR?_E_D_M?EEPROM
  +--> ?PR?STOP?EEPROM
  +--> ?PR?_DELAY_1MS?DELAY
  +--> ?PR?_DELAY_20US?DELAY

?PR?_DELAY_1MS?DELAY                             -----    -----      -----    -----      -----    -----
  +--> ?PR?_DELAY_20US?DELAY

?PR?PROG_COD_PARK?PROG                           -----    -----      -----    -----      003FH    000CH
  +--> ?PR?_RD_EEPROM?EEPROM
  +--> ?CO?PROG
  +--> ?PR?PRINTF?PRINTF
  +--> ?PR?_INGRESADATO?PROG
  +--> ?PR?_ATOI?ATOI
  +--> ?PR?_WR_EEPROM?EEPROM

?PR?PROG_TIEMPO_GRACIA?PROG                      -----    -----      -----    -----      003FH    000CH
  +--> ?PR?_RD_EEPROM?EEPROM
  +--> ?CO?PROG
  +--> ?PR?PRINTF?PRINTF
  +--> ?PR?_INGRESADATO?PROG
  +--> ?PR?_ATOI?ATOI
  +--> ?PR?_WR_EEPROM?EEPROM

?PR?PROG_SIN_COBRO?PROG                          -----    -----      -----    -----      003FH    000CH
  +--> ?PR?_RD_EEPROM?EEPROM
  +--> ?CO?PROG
  +--> ?PR?PRINTF?PRINTF
  +--> ?PR?_INGRESADATO?PROG
  +--> ?PR?_ATOI?ATOI
  +--> ?PR?_WR_EEPROM?EEPROM

?PR?PROG_DEBUG?PROG                              -----    -----      -----    -----      003FH    000CH
  +--> ?PR?_RD_EEPROM?EEPROM
  +--> ?CO?PROG
  +--> ?PR?PRINTF?PRINTF
  +--> ?PR?_INGRESADATO?PROG
BL51 BANKED LINKER/LOCATER V6.22.2.0                                                  10/25/2021  16:12:58  PAGE 9


  +--> ?PR?_ATOI?ATOI
  +--> ?PR?_WR_EEPROM?EEPROM

?PR?PROG_USE_LPR?PROG                            -----    -----      -----    -----      003FH    000CH
  +--> ?PR?_RD_EEPROM?EEPROM
  +--> ?CO?PROG
  +--> ?PR?PRINTF?PRINTF
  +--> ?PR?_INGRESADATO?PROG
  +--> ?PR?_ATOI?ATOI
  +--> ?PR?_WR_EEPROM?EEPROM

?PR?TIPO_PANTALLA?PROG                           -----    -----      -----    -----      003FH    000CH
  +--> ?PR?_RD_EEPROM?EEPROM
  +--> ?CO?PROG
  +--> ?PR?PRINTF?PRINTF
  +--> ?PR?_INGRESADATO?PROG
  +--> ?PR?_ATOI?ATOI
  +--> ?PR?_WR_EEPROM?EEPROM

?PR?PROG_COMPARACION_ACTIVA?PROG                 -----    -----      -----    -----      003FH    000CH
  +--> ?PR?_RD_EEPROM?EEPROM
  +--> ?CO?PROG
  +--> ?PR?PRINTF?PRINTF
  +--> ?PR?_INGRESADATO?PROG
  +--> ?PR?_ATOI?ATOI
  +--> ?PR?_WR_EEPROM?EEPROM

?PR?PROG_QR_BARRAS?PROG                          -----    -----      -----    -----      003FH    000CH
  +--> ?PR?_RD_EEPROM?EEPROM
  +--> ?CO?PROG
  +--> ?PR?PRINTF?PRINTF
  +--> ?PR?_INGRESADATO?PROG
  +--> ?PR?_ATOI?ATOI
  +--> ?PR?_WR_EEPROM?EEPROM

?PR?PROG_CLIENTE?PROG                            -----    -----      -----    -----      003FH    0030H
  +--> ?CO?PROG
  +--> ?PR?PRINTF?PRINTF
  +--> ?PR?_INGRESADATO?PROG
  +--> ?PR?_ESCRIBIRMEMORIA?EEPROM
  +--> ?PR?_LEERMEMORIA?EEPROM

?PR?_ESCRIBIRMEMORIA?EEPROM                      -----    -----      -----    -----      007DH    0006H
  +--> ?PR?_WR_EEPROM?EEPROM

?PR?_LEERMEMORIA?EEPROM                          -----    -----      -----    -----      007DH    0005H
  +--> ?PR?_RD_EEPROM?EEPROM

?PR?PROG_NIT?PROG                                -----    -----      -----    -----      003FH    0010H
  +--> ?CO?PROG
  +--> ?PR?PRINTF?PRINTF
  +--> ?PR?_INGRESADATO?PROG
  +--> ?PR?_ESCRIBIRMEMORIA?EEPROM
  +--> ?PR?_LEERMEMORIA?EEPROM

?PR?PROG_NOM_PARQ?PROG                           -----    -----      -----    -----      003FH    0030H
  +--> ?CO?PROG
BL51 BANKED LINKER/LOCATER V6.22.2.0                                                  10/25/2021  16:12:58  PAGE 10


  +--> ?PR?PRINTF?PRINTF
  +--> ?PR?_INGRESADATO?PROG
  +--> ?PR?_ESCRIBIRMEMORIA?EEPROM
  +--> ?PR?_LEERMEMORIA?EEPROM

?PR?PROG_DIRECCION?PROG                          -----    -----      -----    -----      003FH    0030H
  +--> ?CO?PROG
  +--> ?PR?PRINTF?PRINTF
  +--> ?PR?_INGRESADATO?PROG
  +--> ?PR?_ESCRIBIRMEMORIA?EEPROM
  +--> ?PR?_LEERMEMORIA?EEPROM

?PR?PROG_MSJ1?PROG                               -----    -----      -----    -----      003FH    003EH
  +--> ?CO?PROG
  +--> ?PR?PRINTF?PRINTF
  +--> ?PR?_INGRESADATO?PROG
  +--> ?PR?_ESCRIBIRMEMORIA?EEPROM
  +--> ?PR?_LEERMEMORIA?EEPROM

?PR?PROG_MSJ2?PROG                               -----    -----      -----    -----      003FH    003EH
  +--> ?CO?PROG
  +--> ?PR?PRINTF?PRINTF
  +--> ?PR?_INGRESADATO?PROG
  +--> ?PR?_ESCRIBIRMEMORIA?EEPROM
  +--> ?PR?_LEERMEMORIA?EEPROM

?PR?PROG_MSJ3?PROG                               -----    -----      -----    -----      003FH    003EH
  +--> ?CO?PROG
  +--> ?PR?PRINTF?PRINTF
  +--> ?PR?_INGRESADATO?PROG
  +--> ?PR?_ESCRIBIRMEMORIA?EEPROM
  +--> ?PR?_LEERMEMORIA?EEPROM

?PR?PROG_MSJ4?PROG                               -----    -----      -----    -----      003FH    003EH
  +--> ?CO?PROG
  +--> ?PR?PRINTF?PRINTF
  +--> ?PR?_INGRESADATO?PROG
  +--> ?PR?_ESCRIBIRMEMORIA?EEPROM
  +--> ?PR?_LEERMEMORIA?EEPROM

?PR?PROG_MSJ5?PROG                               -----    -----      -----    -----      003FH    003EH
  +--> ?CO?PROG
  +--> ?PR?PRINTF?PRINTF
  +--> ?PR?_INGRESADATO?PROG
  +--> ?PR?_ESCRIBIRMEMORIA?EEPROM
  +--> ?PR?_LEERMEMORIA?EEPROM

?PR?PROG_MSJ6?PROG                               -----    -----      -----    -----      003FH    003EH
  +--> ?CO?PROG
  +--> ?PR?PRINTF?PRINTF
  +--> ?PR?_INGRESADATO?PROG
  +--> ?PR?_ESCRIBIRMEMORIA?EEPROM
  +--> ?PR?_LEERMEMORIA?EEPROM

?PR?PROG_MSJ7?PROG                               -----    -----      -----    -----      003FH    003EH
  +--> ?CO?PROG
  +--> ?PR?PRINTF?PRINTF
BL51 BANKED LINKER/LOCATER V6.22.2.0                                                  10/25/2021  16:12:58  PAGE 11


  +--> ?PR?_INGRESADATO?PROG
  +--> ?PR?_ESCRIBIRMEMORIA?EEPROM
  +--> ?PR?_LEERMEMORIA?EEPROM

?PR?SHOW?PROG                                    -----    -----      -----    -----      -----    -----
  +--> ?CO?PROG
  +--> ?PR?PRINTF?PRINTF

?PR?VARIABLE_INICIO?MAIN                         -----    -----      -----    -----      -----    -----
  +--> ?PR?_RD_EEPROM?EEPROM

?PR?_RECIBE_CMD_MONITOR?MONITOR                  -----    -----      -----    -----      000EH    0006H
  +--> ?PR?RX_DATA?TIBBO

?PR?RX_DATA?TIBBO                                -----    -----      -----    -----      -----    -----
  +--> ?PR?TIME_MBIT?TIBBO
  +--> ?PR?TIME_BIT?TIBBO

?PR?DEBUG_DIVIDIR_TEXTO?TIBBO                    -----    -----      -----    -----      -----    -----
  +--> ?CO?TIBBO
  +--> ?PR?_DEBUG_TXT_TIBBO?TIBBO

?PR?_DEBUG_TXT_TIBBO?TIBBO                       -----    -----      -----    -----      0043H    0004H
  +--> ?PR?_TX_AUX?TIBBO

?PR?_VALIDA_TRAMA_MONITOR?MONITOR                -----    -----      -----    -----      000EH    0003H

?PR?_DEBUGBUFFERMF?TIBBO                         -----    -----      -----    -----      003DH    0006H
  +--> ?CO?TIBBO
  +--> ?PR?_DEBUG_TXT_TIBBO?TIBBO
  +--> ?PR?_DEBUG_CHR_TIBBO?TIBBO
  +--> ?PR?_TX_AUX?TIBBO

?PR?_DEBUG_CHR_TIBBO?TIBBO                       -----    -----      -----    -----      -----    -----
  +--> ?PR?_TX_AUX?TIBBO

?PR?LEE_TICKET?VERPRINT                          -----    -----      -----    -----      000EH    0006H
  +--> ?PR?VALIDASENSORESPASO?IO_SENSORES
  +--> ?CO?VERPRINT
  +--> ?PR?_DEBUG_TXT_TIBBO?TIBBO
  +--> ?PR?_PANTALLALCD?PANTALLAS
  +--> ?PR?_SEND_PORTERR?PTO_PARALELO
  +--> ?PR?_STRLEN?STRLEN
  +--> ?PR?CLEAR_BUFFER?UART
  +--> ?PR?_TRAMA_PRINT_COD_BARRAS?PTO_PARALELO
  +--> ?PR?_CMD_LPR_SALIDA_PRINT?MONITOR
  +--> ?PR?_NUM_NUM?VERPRINT
  +--> ?PR?_NUM_CHAR?VERPRINT
  +--> ?PR?_STRSTR?STRSTR
  +--> ?PR?_DEBUG_CHR_TIBBO?TIBBO
  +--> ?PR?_STRNCPY?STRNCPY

?PR?VALIDASENSORESPASO?IO_SENSORES               -----    -----      -----    -----      -----    -----
  +--> ?PR?SEL_SENSOR2?IO_SENSORES
  +--> ?PR?VALIDASENSOR?IO_SENSORES
  +--> ?PR?SEL_SENSOR1?IO_SENSORES
  +--> ?PR?SEL_AUTO?IO_SENSORES
BL51 BANKED LINKER/LOCATER V6.22.2.0                                                  10/25/2021  16:12:58  PAGE 12


  +--> ?CO?IO_SENSORES
  +--> ?PR?_DEBUG_TXT_TIBBO?TIBBO

?PR?_PANTALLALCD?PANTALLAS                       -----    -----      -----    -----      001DH    0028H
  +--> ?CO?PANTALLAS
  +--> ?PR?_RASPBERRY_DATA?PANTALLAS

?PR?_RASPBERRY_DATA?PANTALLAS                    -----    -----      -----    -----      0050H    0005H
  +--> ?PR?_STRLEN?STRLEN
  +--> ?PR?_PUTCHAR?MAIN

?PR?_SEND_PORTERR?PTO_PARALELO                   -----    -----      -----    -----      001DH    0006H
  +--> ?PR?PULSO_BUS?PTO_PARALELO
  +--> ?PR?_DELAY_20US?DELAY

?PR?PULSO_BUS?PTO_PARALELO                       -----    -----      -----    -----      -----    -----
  +--> ?PR?_DELAY_20US?DELAY

?PR?_TRAMA_PRINT_COD_BARRAS?PTO_PARALELO         -----    -----      -----    -----      0014H    0029H
  +--> ?PR?_STRLEN?STRLEN
  +--> ?PR?_STRNCAT?STRNCAT
  +--> ?CO?PTO_PARALELO
  +--> ?PR?_STRCAT?STRCAT
  +--> ?PR?_LEE_CLK?CLOCK
  +--> ?PR?_BCD_HEX?CLOCK
  +--> ?PR?_SEND_PORT?PTO_PARALELO
  +--> ?PR?DEBUG_DIVIDIR_TEXTO?TIBBO
  +--> ?PR?_DEBUGBUFFERMF?TIBBO

?PR?_STRNCAT?STRNCAT                             -----    -----      -----    -----      003DH    000AH

?PR?_LEE_CLK?CLOCK                               -----    -----      -----    -----      0042H    0003H
  +--> ?PR?_DELAY_20US?DELAY
  +--> ?PR?_EB_CLK?CLOCK
  +--> ?PR?P_CK?CLOCK

?PR?_EB_CLK?CLOCK                                -----    -----      -----    -----      0045H    0003H
  +--> ?PR?P_CK?CLOCK

?PR?P_CK?CLOCK                                   -----    -----      -----    -----      -----    -----
  +--> ?PR?DELAY?DELAY

?PR?_SEND_PORT?PTO_PARALELO                      -----    -----      -----    -----      003DH    000AH
  +--> ?PR?PULSO_BUS?PTO_PARALELO
  +--> ?PR?_DELAY_20US?DELAY

?PR?_CMD_LPR_SALIDA_PRINT?MONITOR                -----    -----      -----    -----      0014H    0027H
  +--> ?PR?DIR_BOARD?IO_SENSORES
  +--> ?PR?_STRCAT?STRCAT
  +--> ?PR?_STRLEN?STRLEN
  +--> ?PR?_BLOCK_READ_CLOCK_ASCII?CLOCK
  +--> ?PR?_MONITOR_CHR?MONITOR

?PR?DIR_BOARD?IO_SENSORES                        -----    -----      -----    -----      -----    -----
  +--> ?PR?SEL_DIR1?IO_SENSORES
  +--> ?PR?SEL_DIR2?IO_SENSORES

BL51 BANKED LINKER/LOCATER V6.22.2.0                                                  10/25/2021  16:12:58  PAGE 13


?PR?_BLOCK_READ_CLOCK_ASCII?CLOCK                -----    -----      -----    -----      003FH    0003H
  +--> ?PR?_LEE_CLK?CLOCK

?PR?_MONITOR_CHR?MONITOR                         -----    -----      -----    -----      003FH    0005H
  +--> ?PR?_TX_AUX?TIBBO

?PR?_STRSTR?STRSTR                               -----    -----      -----    -----      0014H    000CH

?PR?_STRNCPY?STRNCPY                             -----    -----      -----    -----      0014H    000AH

?PR?_RECIBE_PORT?PTO_PARALELO                    -----    -----      -----    -----      000EH    0007H
  +--> ?PR?OFF_TIMER0_INTERRUP?MAIN
  +--> ?PR?ON_TIMER0_INTERRUP?MAIN

?PR?_VALIDA_TRAMA_PTO?ACCESCAN                   -----    -----      -----    -----      000EH    000FH
  +--> ?PR?_BLOCK_WRITE_CLOCK_ASCII?CLOCK
  +--> ?PR?RELOJ_PANTALLA_LCD?PANTALLAS
  +--> ?PR?_PANTALLALCD?PANTALLAS
  +--> ?CO?ACCESCAN
  +--> ?PR?_DEBUG_TXT_TIBBO?TIBBO
  +--> ?PR?CONFIRMACION?EEPROM
  +--> ?PR?_PANTALLALCD_LINEA_2?PANTALLAS
  +--> ?PR?_SEND_PORTERR?PTO_PARALELO
  +--> ?PR?_BYTEHEX_DECIMAL?CLOCK
  +--> ?PR?_TWO_BYTEHEX_DECIMAL?CLOCK
  +--> ?PR?VALIDASENSORESPASO?IO_SENSORES
  +--> ?PR?_CMD_LPR_SALIDA_WIEGAND?MONITOR
  +--> ?PR?_GRABA_SERIE_ASCII_HEX?NUM_SERIE
  +--> ?PR?_DEBUGBUFFERMF?TIBBO

?PR?_BLOCK_WRITE_CLOCK_ASCII?CLOCK               -----    -----      -----    -----      001DH    0003H
  +--> ?PR?_TWO_ONE?CLOCK
  +--> ?PR?_WR_CLK?CLOCK

?PR?_WR_CLK?CLOCK                                -----    -----      -----    -----      0020H    0002H
  +--> ?PR?_DELAY_20US?DELAY
  +--> ?PR?_EB_CLK?CLOCK

?PR?RELOJ_PANTALLA_LCD?PANTALLAS                 -----    -----      -----    -----      001DH    000DH
  +--> ?CO?PANTALLAS
  +--> ?PR?_BLOCK_READ_CLOCK?CLOCK
  +--> ?PR?_LCD_TXT_NUM_CHAR?PANTALLAS

?PR?_BLOCK_READ_CLOCK?CLOCK                      -----    -----      -----    -----      002AH    0003H
  +--> ?PR?_LEE_CLK?CLOCK

?PR?_LCD_TXT_NUM_CHAR?PANTALLAS                  -----    -----      -----    -----      002AH    0006H
  +--> ?PR?_TX_CHRLCD?PANTALLAS

?PR?_TX_CHRLCD?PANTALLAS                         -----    -----      -----    -----      0055H    0002H
  +--> ?PR?_PUTCHAR?MAIN

?PR?CONFIRMACION?EEPROM                          -----    -----      -----    -----      001DH    000BH
  +--> ?PR?_BLOCK_READ_CLOCK_ASCII?CLOCK
  +--> ?PR?FORMATO_EEPROM?EEPROM

?PR?FORMATO_EEPROM?EEPROM                        -----    -----      -----    -----      0028H    0003H
BL51 BANKED LINKER/LOCATER V6.22.2.0                                                  10/25/2021  16:12:58  PAGE 14


  +--> ?PR?_WR_EEPROM?EEPROM

?PR?_PANTALLALCD_LINEA_2?PANTALLAS               -----    -----      -----    -----      001DH    0033H
  +--> ?CO?PANTALLAS
  +--> ?PR?_LCD_TXT?PANTALLAS
  +--> ?PR?_STRLEN?STRLEN
  +--> ?PR?_TX_CHRLCD?PANTALLAS
  +--> ?PR?_STRCAT?STRCAT
  +--> ?PR?_RASPBERRY_DATA?PANTALLAS

?PR?_LCD_TXT?PANTALLAS                           -----    -----      -----    -----      0050H    0005H
  +--> ?PR?_TX_CHRLCD?PANTALLAS

?PR?_BYTEHEX_DECIMAL?CLOCK                       -----    -----      -----    -----      001DH    0001H

?PR?_TWO_BYTEHEX_DECIMAL?CLOCK                   -----    -----      -----    -----      001DH    000CH
  +--> ?PR?_POW?POW

?PR?_POW?POW                                     -----    -----      -----    -----      0029H    000AH
  +--> ?PR?LOG?LOG
  +--> ?PR?EXP?EXP

?PR?LOG?LOG                                      0020H.0  0000H.1    -----    -----      0033H    0004H

?PR?_CMD_LPR_SALIDA_WIEGAND?MONITOR              -----    -----      -----    -----      001DH    0022H
  +--> ?PR?DIR_BOARD?IO_SENSORES
  +--> ?PR?_BLOCK_READ_CLOCK_ASCII?CLOCK
  +--> ?PR?_MONITOR_CHR?MONITOR

?PR?_GRABA_SERIE_ASCII_HEX?NUM_SERIE             -----    -----      -----    -----      -----    -----
  +--> ?PR?_ESCRIBIRMEMORIA?EEPROM

?PR?MSJ_LCD_INFORMATIVO?IO_SENSORES              -----    -----      -----    -----      000EH    0002H
  +--> ?PR?SEL_FUNCION?IO_SENSORES
  +--> ?PR?LOAD_AND_SEND_INFO_RELOJ?PTO_PARA...
  +--> ?PR?LOAD_AND_SEND_ID_COD?PTO_PARALELO
  +--> ?PR?_RD_EEPROM?EEPROM
  +--> ?PR?_SEND_PORTERR?PTO_PARALELO

?PR?LOAD_AND_SEND_INFO_RELOJ?PTO_PARA...         -----    -----      -----    -----      0010H    000BH
  +--> ?PR?_BLOCK_READ_CLOCK?CLOCK
  +--> ?PR?_LEE_CLK?CLOCK
  +--> ?PR?_SEND_PORT?PTO_PARALELO

?PR?LOAD_AND_SEND_ID_COD?PTO_PARALELO            -----    -----      -----    -----      0010H    0011H
  +--> ?CO?PTO_PARALELO
  +--> ?PR?PRINTF?PRINTF
  +--> ?PR?_SEND_PORT?PTO_PARALELO



SYMBOL TABLE OF MODULE:  .\Objects\VRFCDOR_PRINT_100 (MAIN)

  VALUE           TYPE          NAME
  ----------------------------------

  -------         MODULE        MAIN
BL51 BANKED LINKER/LOCATER V6.22.2.0                                                  10/25/2021  16:12:58  PAGE 15


  C:0000H         SYMBOL        _ICE_DUMMY_
  D:0080H         PUBLIC        P0
  D:0090H         PUBLIC        P1
  C:5CF7H         PUBLIC        timer0_int
  D:00B0H         PUBLIC        P3
  X:013CH         PUBLIC        placa
  B:00A8H.7       PUBLIC        EA
  C:5E85H         PUBLIC        off_Timer0_Interrup
  X:0145H         PUBLIC        ValTimeOutCom
  X:0146H         PUBLIC        Timer_wait
  X:0147H         PUBLIC        g_cContByteRx
  B:0080H.0       PUBLIC        rx_ip
  B:0080H.3       PUBLIC        Atascado
  C:41D6H         PUBLIC        main
  C:4B1DH         PUBLIC        variable_inicio
  B:0090H.7       PUBLIC        lock
  I:0022H         PUBLIC        rbuf
  C:5E7BH         PUBLIC        on_Timer0_Interrup
  I:00A2H         PUBLIC        tbuf
  B:0090H.1       PUBLIC        DataIn
  D:0089H         PUBLIC        TMOD
  X:0148H         PUBLIC        USE_LPR
  X:0149H         PUBLIC        Debug_Tibbo
  X:014AH         PUBLIC        Raspberry
  X:014BH         PUBLIC        QR_BARRAS
  X:014CH         PUBLIC        SIN_COBRO
  X:014EH         PUBLIC        Tipo_Vehiculo
  B:00B0H.3       PUBLIC        busy
  C:5DBFH         PUBLIC        ini_timer
  B:00A8H.1       PUBLIC        ET0
  B:0088H.5       PUBLIC        TF0
  X:014FH         PUBLIC        COMPARACION_ACTIVA
  X:0150H         PUBLIC        g_cEstadoImpresion
  D:008CH         PUBLIC        TH0
  X:0151H         PUBLIC        ACK
  X:0152H         PUBLIC        g_cEstadoComSoft
  D:008AH         PUBLIC        TL0
  B:0088H.4       PUBLIC        TR0
  C:5DCFH         PUBLIC        inicia_board
  X:0153H         PUBLIC        T_GRACIA
  X:0155H         PUBLIC        COD_PARK
  B:0080H.7       PUBLIC        sel_com
  X:0157H         PUBLIC        STX_LINTECH
  C:5E1CH         PUBLIC        _getkey
  X:0158H         PUBLIC        ETX
  X:0159H         PUBLIC        ID_CLIENTE
  X:015BH         PUBLIC        buffer_ready
  C:5923H         PUBLIC        _putchar
  B:0021H.1       PUBLIC        placa_ready
  -------         PROC          TIMER0_INT
  C:5CF7H         LINE#         13
  C:5CFDH         LINE#         16
  C:5D03H         LINE#         17
  C:5D07H         LINE#         18
  C:5D09H         LINE#         20
  -------         ENDPROC       TIMER0_INT
  -------         PROC          INI_TIMER
BL51 BANKED LINKER/LOCATER V6.22.2.0                                                  10/25/2021  16:12:58  PAGE 16


  C:5DBFH         LINE#         23
  C:5DBFH         LINE#         24
  C:5DBFH         LINE#         26
  C:5DC7H         LINE#         28
  C:5DCAH         LINE#         29
  C:5DCCH         LINE#         30
  C:5DCEH         LINE#         32
  -------         ENDPROC       INI_TIMER
  -------         PROC          ON_TIMER0_INTERRUP
  C:5E7BH         LINE#         35
  C:5E7BH         LINE#         36
  C:5E7BH         LINE#         37
  C:5E7DH         LINE#         38
  C:5E7FH         LINE#         40
  -------         ENDPROC       ON_TIMER0_INTERRUP
  -------         PROC          OFF_TIMER0_INTERRUP
  C:5E85H         LINE#         43
  C:5E85H         LINE#         44
  C:5E85H         LINE#         45
  C:5E87H         LINE#         47
  -------         ENDPROC       OFF_TIMER0_INTERRUP
  -------         PROC          _GETKEY
  -------         DO            
  D:0006H         SYMBOL        k
  -------         ENDDO         
  C:5E1CH         LINE#         55
  C:5E1CH         LINE#         56
  C:5E1CH         LINE#         60
  C:5E1CH         LINE#         61
  C:5E1FH         LINE#         62
  C:5E1FH         LINE#         63
  C:5E27H         LINE#         65
  C:5E27H         LINE#         66
  -------         ENDPROC       _GETKEY
  -------         PROC          _PUTCHAR
  X:00B1H         SYMBOL        c
  -------         DO            
  X:00B2H         SYMBOL        i
  -------         ENDDO         
  C:5923H         LINE#         70
  C:5928H         LINE#         71
  C:5928H         LINE#         74
  C:5937H         LINE#         75
  C:5937H         LINE#         76
  C:594DH         LINE#         77
  C:594DH         LINE#         79
  C:595BH         LINE#         80
  C:595BH         LINE#         82
  C:5960H         LINE#         83
  -------         ENDPROC       _PUTCHAR
  -------         PROC          INICIA_BOARD
  C:5DCFH         LINE#         101
  C:5DCFH         LINE#         102
  C:5DCFH         LINE#         103
  C:5DD2H         LINE#         104
  C:5DD5H         LINE#         105
  C:5DD8H         LINE#         106
BL51 BANKED LINKER/LOCATER V6.22.2.0                                                  10/25/2021  16:12:58  PAGE 17


  C:5DDAH         LINE#         107
  C:5DDCH         LINE#         108
  C:5DDEH         LINE#         110
  -------         ENDPROC       INICIA_BOARD
  -------         PROC          VARIABLE_INICIO
  C:4B1DH         LINE#         114
  C:4B1DH         LINE#         115
  C:4B1DH         LINE#         117
  C:4B2DH         LINE#         118
  C:4B3EH         LINE#         119
  C:4B4FH         LINE#         120
  C:4B60H         LINE#         121
  C:4B6EH         LINE#         122
  C:4B7CH         LINE#         123
  C:4B8AH         LINE#         124
  C:4B98H         LINE#         125
  C:4BA6H         LINE#         126
  -------         ENDPROC       VARIABLE_INICIO
  -------         PROC          MAIN
  -------         DO            
  X:0114H         SYMBOL        buffer
  X:0000H         SYMBOL        buffer1
  X:000DH         SYMBOL        Length_trama
  -------         ENDDO         
  C:41D6H         LINE#         134
  C:41D6H         LINE#         135
  C:41D6H         LINE#         142
  C:41D9H         LINE#         143
  C:41DCH         LINE#         144
  C:41DFH         LINE#         145
  C:41E2H         LINE#         146
  C:41E5H         LINE#         147
  C:41E7H         LINE#         149
  C:41EAH         LINE#         151
  C:41EDH         LINE#         152
  C:41F2H         LINE#         154
  C:41F5H         LINE#         155
  C:41F8H         LINE#         156
  C:41F8H         LINE#         157
  C:41FBH         LINE#         158
  C:41FBH         LINE#         159
  C:41FEH         LINE#         161
  C:4204H         LINE#         163
  C:4204H         LINE#         164
  C:4204H         LINE#         167
  C:4207H         LINE#         168
  C:4207H         LINE#         170
  C:4215H         LINE#         171
  C:4218H         LINE#         172
  C:4226H         LINE#         173
  C:423AH         LINE#         174
  C:4243H         LINE#         175
  C:4246H         LINE#         176
  C:4246H         LINE#         178
  C:4249H         LINE#         184
  C:424CH         LINE#         185
  C:424CH         LINE#         187
BL51 BANKED LINKER/LOCATER V6.22.2.0                                                  10/25/2021  16:12:58  PAGE 18


  C:425BH         LINE#         191
  C:426AH         LINE#         194
  C:4272H         LINE#         195
  C:427BH         LINE#         198
  C:4289H         LINE#         200
  C:4289H         LINE#         201
  C:428CH         LINE#         204
  -------         ENDPROC       MAIN
  -------         ENDMOD        MAIN

  -------         MODULE        CLOCK
  C:0000H         SYMBOL        _ICE_DUMMY_
  C:57D8H         PUBLIC        _two_one
  D:0090H         PUBLIC        P1
  C:5B54H         PUBLIC        _wr_clk
  B:00D0H.7       PUBLIC        CY
  C:0003H         PUBLIC        p_ck
  X:018DH         PUBLIC        data_clk
  C:5E44H         PUBLIC        cond_ini_clock
  C:3E1EH         PUBLIC        _Block_read_Clock
  B:0090H.4       PUBLIC        sck
  C:44ABH         PUBLIC        _Block_read_Clock_Hex
  C:28C6H         PUBLIC        _Block_read_clock_ascii
  C:5C86H         PUBLIC        _bcd_hex
  C:52DDH         PUBLIC        _ByteHex_Decimal
  C:485CH         PUBLIC        _lee_clk
  B:0090H.5       PUBLIC        io
  C:4A02H         PUBLIC        _Block_write_clock_ascii
  B:0090H.6       PUBLIC        rst
  C:5866H         PUBLIC        _eb_clk
  C:23BCH         PUBLIC        _Two_ByteHex_Decimal
  -------         PROC          P_CK
  C:0003H         LINE#         37
  C:0003H         LINE#         38
  C:0003H         LINE#         39
  C:0005H         LINE#         40
  C:0008H         LINE#         41
  C:000AH         LINE#         42
  -------         ENDPROC       P_CK
  -------         PROC          _EB_CLK
  X:0045H         SYMBOL        dir_clk
  -------         DO            
  X:0046H         SYMBOL        nbits
  -------         ENDDO         
  C:5866H         LINE#         44
  C:586BH         LINE#         46
  C:5870H         LINE#         47
  C:5870H         LINE#         48
  C:5879H         LINE#         49
  C:587CH         LINE#         50
  C:587CH         LINE#         51
  C:587EH         LINE#         52
  C:5880H         LINE#         54
  C:5880H         LINE#         55
  C:5882H         LINE#         56
  C:5882H         LINE#         57
  C:5885H         LINE#         58
BL51 BANKED LINKER/LOCATER V6.22.2.0                                                  10/25/2021  16:12:58  PAGE 19


  C:58A4H         LINE#         59
  -------         ENDPROC       _EB_CLK
  C:4852H         SYMBOL        L?0048
  -------         PROC          L?0047
  -------         ENDPROC       L?0047
  C:4852H         SYMBOL        L?0048
  -------         PROC          _LEE_CLK
  X:0042H         SYMBOL        dir_clk
  -------         DO            
  X:0043H         SYMBOL        nbits
  -------         ENDDO         
  C:485CH         LINE#         61
  C:4861H         LINE#         63
  C:4863H         LINE#         64
  C:486AH         LINE#         65
  C:4872H         LINE#         66
  C:488BH         LINE#         67
  C:488BH         LINE#         68
  C:488EH         LINE#         69
  C:488EH         LINE#         70
  C:4895H         LINE#         71
  C:489FH         LINE#         72
  C:48A4H         LINE#         73
  C:48A4H         LINE#         74
  C:48A4H         LINE#         75
  C:48A7H         LINE#         76
  C:48A7H         LINE#         77
  C:48AEH         LINE#         78
  C:48BFH         LINE#         79
  C:48BFH         LINE#         80
  C:48C7H         LINE#         81
  C:48C7H         LINE#         82
  C:48C7H         LINE#         83
  C:48CAH         LINE#         84
  C:48DAH         LINE#         85
  C:48DCH         LINE#         86
  C:48E1H         LINE#         87
  -------         ENDPROC       _LEE_CLK
  -------         PROC          _WR_CLK
  X:0020H         SYMBOL        dir_clk
  X:0021H         SYMBOL        byte
  C:5B54H         LINE#         89
  C:5B5CH         LINE#         90
  C:5B5EH         LINE#         91
  C:5B65H         LINE#         92
  C:5B6DH         LINE#         93
  C:5B76H         LINE#         94
  C:5B79H         LINE#         95
  C:5B7BH         LINE#         97
  -------         ENDPROC       _WR_CLK
  C:57A4H         SYMBOL        L?0045
  C:57C2H         SYMBOL        L?0046
  -------         PROC          L?0044
  -------         ENDPROC       L?0044
  C:57A4H         SYMBOL        L?0045
  C:57C2H         SYMBOL        L?0046
  -------         PROC          _TWO_ONE
BL51 BANKED LINKER/LOCATER V6.22.2.0                                                  10/25/2021  16:12:58  PAGE 20


  D:0007H         SYMBOL        byte_h
  D:0005H         SYMBOL        byte_l
  -------         DO            
  D:0007H         SYMBOL        byte_out
  -------         ENDDO         
  C:57D8H         LINE#         99
  C:57D8H         LINE#         100
  C:57D8H         LINE#         102
  C:57DBH         LINE#         103
  C:57DFH         LINE#         104
  C:57E2H         LINE#         105
  C:57E4H         LINE#         106
  C:57E4H         LINE#         107
  -------         ENDPROC       _TWO_ONE
  -------         PROC          _BLOCK_WRITE_CLOCK_ASCII
  X:001DH         SYMBOL        datos_clock
  C:4A02H         LINE#         112
  C:4A0DH         LINE#         114
  C:4A0DH         LINE#         118
  C:4A17H         LINE#         119
  C:4A17H         LINE#         120
  C:4A17H         LINE#         121
  C:4A17H         LINE#         123
  C:4A21H         LINE#         124
  C:4A2BH         LINE#         125
  C:4A35H         LINE#         126
  C:4A35H         LINE#         127
  C:4A35H         LINE#         128
  C:4A35H         LINE#         130
  C:4A3FH         LINE#         131
  C:4A3FH         LINE#         132
  C:4A3FH         LINE#         133
  C:4A3FH         LINE#         135
  C:4A49H         LINE#         136
  C:4A49H         LINE#         137
  C:4A49H         LINE#         138
  C:4A49H         LINE#         140
  C:4A53H         LINE#         141
  C:4A53H         LINE#         142
  C:4A53H         LINE#         143
  C:4A53H         LINE#         145
  C:4A5DH         LINE#         146
  C:4A67H         LINE#         147
  C:4A71H         LINE#         148
  C:4A7BH         LINE#         150
  -------         ENDPROC       _BLOCK_WRITE_CLOCK_ASCII
  -------         PROC          _BCD_HEX
  D:0007H         SYMBOL        l_data
  -------         DO            
  D:0006H         SYMBOL        temp
  D:0005H         SYMBOL        j
  -------         ENDDO         
  C:5C86H         LINE#         156
  C:5C86H         LINE#         157
  C:5C86H         LINE#         159
  C:5C88H         LINE#         160
  C:5C8CH         LINE#         161
BL51 BANKED LINKER/LOCATER V6.22.2.0                                                  10/25/2021  16:12:58  PAGE 21


  C:5C8FH         LINE#         162
  C:5C91H         LINE#         163
  C:5C91H         LINE#         164
  C:5C95H         LINE#         165
  C:5C9CH         LINE#         166
  C:5C9CH         LINE#         167
  C:5CA0H         LINE#         168
  C:5CA3H         LINE#         169
  C:5CA3H         LINE#         170
  C:5CA3H         LINE#         171
  -------         ENDPROC       _BCD_HEX
  -------         PROC          _BYTEHEX_DECIMAL
  D:0001H         SYMBOL        buffer
  D:0005H         SYMBOL        valorhex
  -------         DO            
  X:001DH         SYMBOL        numero
  D:0007H         SYMBOL        centena
  D:0006H         SYMBOL        decena
  -------         ENDDO         
  C:52DDH         LINE#         207
  C:52DDH         LINE#         208
  C:52DDH         LINE#         211
  C:52DFH         LINE#         212
  C:52E0H         LINE#         213
  C:52E5H         LINE#         215
  C:52F2H         LINE#         216
  C:52F2H         LINE#         217
  C:52F6H         LINE#         218
  C:52F7H         LINE#         219
  C:52F9H         LINE#         220
  C:52FFH         LINE#         221
  C:5306H         LINE#         222
  C:5313H         LINE#         223
  C:5313H         LINE#         224
  C:5317H         LINE#         225
  C:5318H         LINE#         226
  C:531AH         LINE#         227
  C:5320H         LINE#         228
  C:5327H         LINE#         229
  -------         ENDPROC       _BYTEHEX_DECIMAL
  -------         PROC          _TWO_BYTEHEX_DECIMAL
  X:001DH         SYMBOL        buffer
  X:0020H         SYMBOL        id_h
  X:0021H         SYMBOL        id_l
  -------         DO            
  X:0022H         SYMBOL        valor
  D:0006H         SYMBOL        numero
  X:0024H         SYMBOL        temp
  X:0025H         SYMBOL        dmil
  X:0026H         SYMBOL        mil
  X:0027H         SYMBOL        centena
  X:0028H         SYMBOL        decena
  -------         ENDDO         
  C:23BCH         LINE#         237
  C:23CAH         LINE#         238
  C:23CAH         LINE#         242
  C:23D1H         LINE#         243
BL51 BANKED LINKER/LOCATER V6.22.2.0                                                  10/25/2021  16:12:58  PAGE 22


  C:23D5H         LINE#         244
  C:23D7H         LINE#         245
  C:23D9H         LINE#         246
  C:23DBH         LINE#         249
  C:23E0H         LINE#         250
  C:23E3H         LINE#         251
  C:23E9H         LINE#         253
  C:2444H         LINE#         254
  C:244CH         LINE#         255
  C:244FH         LINE#         256
  C:24AAH         LINE#         258
  C:24B2H         LINE#         259
  C:24B5H         LINE#         260
  C:24BBH         LINE#         261
  C:2516H         LINE#         262
  C:251EH         LINE#         263
  C:2521H         LINE#         264
  C:257CH         LINE#         265
  C:257CH         LINE#         267
  C:2585H         LINE#         268
  C:2585H         LINE#         269
  C:258DH         LINE#         270
  C:2593H         LINE#         271
  C:2595H         LINE#         272
  C:25ABH         LINE#         273
  C:25B5H         LINE#         274
  C:25BEH         LINE#         275
  C:25BEH         LINE#         276
  C:25C6H         LINE#         277
  C:25CCH         LINE#         278
  C:25CEH         LINE#         279
  C:25E4H         LINE#         280
  C:25EEH         LINE#         281
  C:25F7H         LINE#         282
  C:25F7H         LINE#         283
  C:25FFH         LINE#         284
  C:2605H         LINE#         285
  C:2607H         LINE#         286
  C:261DH         LINE#         287
  C:2627H         LINE#         288
  C:2630H         LINE#         289
  C:2630H         LINE#         290
  C:2638H         LINE#         291
  C:263EH         LINE#         292
  C:2640H         LINE#         293
  C:2656H         LINE#         294
  C:2660H         LINE#         295
  C:2673H         LINE#         296
  C:267DH         LINE#         297
  -------         ENDPROC       _TWO_BYTEHEX_DECIMAL
  -------         PROC          _BLOCK_READ_CLOCK_ASCII
  X:003FH         SYMBOL        datos_clock
  -------         DO            
  D:0007H         SYMBOL        dato
  -------         ENDDO         
  C:28C6H         LINE#         303
  C:28C9H         LINE#         304
BL51 BANKED LINKER/LOCATER V6.22.2.0                                                  10/25/2021  16:12:58  PAGE 23


  C:28C9H         LINE#         310
  C:28CCH         LINE#         311
  C:28E4H         LINE#         312
  C:28EEH         LINE#         313
  C:2903H         LINE#         314
  C:290DH         LINE#         317
  C:2912H         LINE#         318
  C:292AH         LINE#         319
  C:2934H         LINE#         320
  C:2949H         LINE#         321
  C:2953H         LINE#         324
  C:2958H         LINE#         325
  C:2970H         LINE#         326
  C:297AH         LINE#         327
  C:298FH         LINE#         328
  C:2999H         LINE#         332
  C:299EH         LINE#         333
  C:29B6H         LINE#         334
  C:29C0H         LINE#         335
  C:29D5H         LINE#         336
  C:29DFH         LINE#         339
  C:29E4H         LINE#         340
  C:29FCH         LINE#         341
  C:2A06H         LINE#         342
  C:2A1BH         LINE#         343
  C:2A25H         LINE#         346
  C:2A2AH         LINE#         347
  C:2A42H         LINE#         348
  C:2A4CH         LINE#         349
  C:2A61H         LINE#         350
  C:2A6BH         LINE#         353
  C:2A70H         LINE#         354
  C:2A85H         LINE#         355
  C:2A8FH         LINE#         356
  -------         ENDPROC       _BLOCK_READ_CLOCK_ASCII
  -------         PROC          _BLOCK_READ_CLOCK_HEX
  X:0184H         SYMBOL        datos_clock
  C:44ABH         LINE#         360
  C:44AEH         LINE#         361
  C:44AEH         LINE#         364
  C:44C3H         LINE#         365
  C:44CDH         LINE#         367
  C:44E4H         LINE#         368
  C:44EEH         LINE#         370
  C:4505H         LINE#         371
  C:450FH         LINE#         373
  C:4526H         LINE#         374
  C:4530H         LINE#         376
  C:4547H         LINE#         377
  -------         ENDPROC       _BLOCK_READ_CLOCK_HEX
  -------         PROC          _BLOCK_READ_CLOCK
  X:002AH         SYMBOL        datos_clock
  C:3E1EH         LINE#         404
  C:3E21H         LINE#         405
  C:3E21H         LINE#         407
  C:3E33H         LINE#         408
  C:3E3DH         LINE#         410
BL51 BANKED LINKER/LOCATER V6.22.2.0                                                  10/25/2021  16:12:58  PAGE 24


  C:3E51H         LINE#         411
  C:3E5BH         LINE#         413
  C:3E6FH         LINE#         414
  C:3E79H         LINE#         416
  C:3E8DH         LINE#         417
  C:3E97H         LINE#         419
  C:3EABH         LINE#         420
  C:3EB5H         LINE#         422
  C:3EC9H         LINE#         423
  C:3ED3H         LINE#         424
  -------         ENDPROC       _BLOCK_READ_CLOCK
  -------         PROC          COND_INI_CLOCK
  C:5E44H         LINE#         427
  C:5E44H         LINE#         428
  C:5E44H         LINE#         429
  C:5E46H         LINE#         430
  C:5E48H         LINE#         431
  C:5E4AH         LINE#         432
  -------         ENDPROC       COND_INI_CLOCK
  -------         ENDMOD        CLOCK

  -------         MODULE        DELAY
  C:0000H         SYMBOL        _ICE_DUMMY_
  C:5D53H         PUBLIC        _Delay_20us
  C:5CC2H         PUBLIC        _Delay_1ms
  C:5E8BH         PUBLIC        Delay
  -------         PROC          _DELAY_20US
  D:0006H         SYMBOL        cnt
  -------         DO            
  D:0004H         SYMBOL        i
  -------         ENDDO         
  C:5D53H         LINE#         20
  C:5D53H         LINE#         21
  C:5D53H         LINE#         24
  C:5D5DH         LINE#         26
  C:5D64H         LINE#         27
  -------         ENDPROC       _DELAY_20US
  -------         PROC          _DELAY_1MS
  D:0002H         SYMBOL        cnt
  -------         DO            
  D:0082H         SYMBOL        i
  -------         ENDDO         
  C:5CC2H         LINE#         38
  C:5CC6H         LINE#         39
  C:5CC6H         LINE#         41
  C:5CDCH         LINE#         42
  -------         ENDPROC       _DELAY_1MS
  -------         PROC          DELAY
  C:5E8BH         LINE#         60
  C:5E8BH         LINE#         62
  -------         ENDPROC       DELAY
  -------         ENDMOD        DELAY

  -------         MODULE        EEPROM
  C:0000H         SYMBOL        _ICE_DUMMY_
  C:59DDH         PUBLIC        confirmacion
  D:0090H         PUBLIC        P1
BL51 BANKED LINKER/LOCATER V6.22.2.0                                                  10/25/2021  16:12:58  PAGE 25


  C:4BA7H         PUBLIC        _EscribirMemoria
  X:0187H         PUBLIC        l_chr
  C:5BEBH         PUBLIC        ackd
  B:0021H.2       PUBLIC        memory_flag
  B:00D0H.7       PUBLIC        CY
  C:5E75H         PUBLIC        p_me
  C:5D6DH         PUBLIC        start
  B:0090H.2       PUBLIC        sda
  C:5C0BH         PUBLIC        ack_lect
  B:0090H.3       PUBLIC        scl
  C:5A90H         PUBLIC        _rd_eeprom
  C:5E32H         PUBLIC        stop
  C:58E4H         PUBLIC        Formato_eeprom
  X:0188H         PUBLIC        l_data_eeprom
  C:58A5H         PUBLIC        _wr_eeprom
  C:522EH         PUBLIC        _LeerMemoria
  X:0189H         PUBLIC        byte_rd
  C:5BC6H         PUBLIC        _e_d_m
  C:5330H         PUBLIC        l_d_m
  -------         PROC          L?0055
  -------         ENDPROC       L?0055
  -------         PROC          ACKD
  -------         DO            
  D:0006H         SYMBOL        i
  -------         ENDDO         
  C:5BEBH         LINE#         40
  C:5BEBH         LINE#         41
  C:5BEBH         LINE#         43
  C:5BEDH         LINE#         44
  C:5BEFH         LINE#         45
  C:5BF1H         LINE#         46
  C:5BF4H         LINE#         47
  C:5BF4H         LINE#         48
  C:5BF7H         LINE#         49
  C:5BF7H         LINE#         50
  C:5BF9H         LINE#         51
  C:5BFBH         LINE#         53
  C:5BFCH         LINE#         54
  C:5BFCH         LINE#         55
  C:5C07H         LINE#         57
  C:5C07H         LINE#         58
  C:5C07H         LINE#         60
  C:5C07H         LINE#         61
  -------         ENDPROC       ACKD
  -------         PROC          L?0057
  -------         ENDPROC       L?0057
  -------         PROC          ACK_LECT
  -------         DO            
  D:0006H         SYMBOL        i
  -------         ENDDO         
  C:5C0BH         LINE#         64
  C:5C0BH         LINE#         65
  C:5C0BH         LINE#         67
  C:5C0DH         LINE#         68
  C:5C0FH         LINE#         69
  C:5C11H         LINE#         70
  C:5C14H         LINE#         71
BL51 BANKED LINKER/LOCATER V6.22.2.0                                                  10/25/2021  16:12:58  PAGE 26


  C:5C14H         LINE#         72
  C:5C17H         LINE#         73
  C:5C17H         LINE#         74
  C:5C19H         LINE#         75
  C:5C1BH         LINE#         76
  C:5C1CH         LINE#         77
  C:5C1CH         LINE#         78
  C:5C27H         LINE#         79
  -------         ENDPROC       ACK_LECT
  -------         PROC          P_ME
  C:5E75H         LINE#         81
  C:5E75H         LINE#         82
  C:5E75H         LINE#         83
  C:5E77H         LINE#         84
  C:5E78H         LINE#         85
  C:5E7AH         LINE#         86
  -------         ENDPROC       P_ME
  -------         PROC          _E_D_M
  D:0007H         SYMBOL        a_serial_eeprom
  -------         DO            
  D:0006H         SYMBOL        nbits
  -------         ENDDO         
  C:5BC6H         LINE#         88
  C:5BC6H         LINE#         89
  C:5BC6H         LINE#         91
  C:5BD2H         LINE#         92
  C:5BD2H         LINE#         93
  C:5BD6H         LINE#         94
  C:5BD9H         LINE#         95
  C:5BD9H         LINE#         96
  C:5BDBH         LINE#         97
  C:5BDDH         LINE#         99
  C:5BDDH         LINE#         100
  C:5BDFH         LINE#         101
  C:5BDFH         LINE#         102
  C:5BE1H         LINE#         103
  C:5BE4H         LINE#         104
  C:5BE7H         LINE#         106
  -------         ENDPROC       _E_D_M
  -------         PROC          L?0056
  -------         ENDPROC       L?0056
  -------         PROC          START
  C:5D6DH         LINE#         108
  C:5D6DH         LINE#         109
  C:5D6DH         LINE#         110
  C:5D6FH         LINE#         111
  C:5D71H         LINE#         112
  C:5D72H         LINE#         113
  C:5D74H         LINE#         114
  C:5D76H         LINE#         116
  -------         ENDPROC       START
  -------         PROC          STOP
  C:5E32H         LINE#         118
  C:5E32H         LINE#         119
  C:5E32H         LINE#         120
  C:5E34H         LINE#         121
  C:5E36H         LINE#         122
BL51 BANKED LINKER/LOCATER V6.22.2.0                                                  10/25/2021  16:12:58  PAGE 27


  C:5E38H         LINE#         123
  C:5E3AH         LINE#         125
  -------         ENDPROC       STOP
  -------         PROC          L_D_M
  -------         DO            
  D:0003H         SYMBOL        nbits
  -------         ENDDO         
  C:5330H         LINE#         127
  C:5330H         LINE#         128
  C:5330H         LINE#         130
  C:533DH         LINE#         131
  C:533DH         LINE#         132
  C:533FH         LINE#         133
  C:5342H         LINE#         134
  C:5342H         LINE#         135
  C:5349H         LINE#         136
  C:5352H         LINE#         137
  C:5352H         LINE#         138
  C:5356H         LINE#         139
  C:5358H         LINE#         140
  C:5358H         LINE#         141
  C:5358H         LINE#         142
  C:535BH         LINE#         143
  C:535BH         LINE#         144
  C:5362H         LINE#         145
  C:536CH         LINE#         146
  C:536CH         LINE#         147
  C:5370H         LINE#         148
  C:5372H         LINE#         149
  C:5372H         LINE#         150
  C:5372H         LINE#         151
  C:5375H         LINE#         152
  C:5377H         LINE#         153
  C:537CH         LINE#         154
  -------         ENDPROC       L_D_M
  -------         PROC          _WR_EEPROM
  D:0002H         SYMBOL        control
  D:0004H         SYMBOL        Dir
  D:0003H         SYMBOL        data_eeprom
  -------         DO            
  D:0005H         SYMBOL        dir_h
  D:0001H         SYMBOL        dir_l
  -------         ENDDO         
  C:58A5H         LINE#         160
  C:58A7H         LINE#         161
  C:58A7H         LINE#         163
  C:58ABH         LINE#         164
  C:58ABH         LINE#         165
  C:58ABH         LINE#         168
  C:58ABH         LINE#         169
  C:58ABH         LINE#         171
  C:58AEH         LINE#         172
  C:58B0H         LINE#         173
  C:58B3H         LINE#         174
  C:58B5H         LINE#         175
  C:58B8H         LINE#         176
  C:58BDH         LINE#         177
BL51 BANKED LINKER/LOCATER V6.22.2.0                                                  10/25/2021  16:12:58  PAGE 28


  C:58C0H         LINE#         178
  C:58C5H         LINE#         179
  C:58C8H         LINE#         180
  C:58CBH         LINE#         181
  C:58D2H         LINE#         183
  C:58D4H         LINE#         184
  C:58D6H         LINE#         185
  C:58DDH         LINE#         186
  -------         ENDPROC       _WR_EEPROM
  -------         PROC          _RD_EEPROM
  D:0003H         SYMBOL        control
  D:0004H         SYMBOL        Dir
  -------         DO            
  D:0005H         SYMBOL        dir_h
  D:0002H         SYMBOL        dir_l
  -------         ENDDO         
  C:5A90H         LINE#         236
  C:5A92H         LINE#         237
  C:5A92H         LINE#         240
  C:5A96H         LINE#         241
  C:5A96H         LINE#         242
  C:5A96H         LINE#         244
  C:5A96H         LINE#         245
  C:5A96H         LINE#         247
  C:5A99H         LINE#         248
  C:5A9BH         LINE#         249
  C:5A9EH         LINE#         250
  C:5AA0H         LINE#         251
  C:5AA3H         LINE#         252
  C:5AA8H         LINE#         253
  C:5AABH         LINE#         254
  C:5AAEH         LINE#         255
  C:5AB4H         LINE#         256
  C:5AB7H         LINE#         257
  C:5AB9H         LINE#         258
  C:5ABCH         LINE#         259
  C:5ABFH         LINE#         260
  C:5AC1H         LINE#         261
  C:5AC3H         LINE#         262
  C:5AC8H         LINE#         263
  -------         ENDPROC       _RD_EEPROM
  -------         PROC          _LEERMEMORIA
  X:007DH         SYMBOL        addres
  X:007FH         SYMBOL        res
  -------         DO            
  D:0007H         SYMBOL        i
  -------         ENDDO         
  C:522EH         LINE#         268
  C:523FH         LINE#         269
  C:523FH         LINE#         274
  C:523FH         LINE#         275
  C:525BH         LINE#         276
  C:526AH         LINE#         277
  C:5278H         LINE#         278
  C:5282H         LINE#         279
  C:5282H         LINE#         280
  C:5285H         LINE#         282
BL51 BANKED LINKER/LOCATER V6.22.2.0                                                  10/25/2021  16:12:58  PAGE 29


  -------         ENDPROC       _LEERMEMORIA
  -------         PROC          _ESCRIBIRMEMORIA
  X:007DH         SYMBOL        control
  X:007EH         SYMBOL        addres
  X:0080H         SYMBOL        res
  C:4BA7H         LINE#         288
  C:4BBBH         LINE#         289
  C:4BBBH         LINE#         291
  C:4BCBH         LINE#         292
  C:4BCBH         LINE#         293
  C:4BCEH         LINE#         294
  C:4BCEH         LINE#         296
  C:4BD2H         LINE#         297
  C:4BD2H         LINE#         298
  C:4BEDH         LINE#         299
  C:4BFBH         LINE#         300
  C:4C05H         LINE#         301
  C:4C07H         LINE#         302
  C:4C16H         LINE#         303
  -------         ENDPROC       _ESCRIBIRMEMORIA
  -------         PROC          CONFIRMACION
  -------         DO            
  X:001DH         SYMBOL        hora
  D:0007H         SYMBOL        temp
  -------         ENDDO         
  C:59DDH         LINE#         305
  C:59DDH         LINE#         306
  C:59DDH         LINE#         308
  C:59DFH         LINE#         309
  C:59E8H         LINE#         311
  C:59EEH         LINE#         312
  C:59F2H         LINE#         313
  C:59F2H         LINE#         315
  C:59F6H         LINE#         316
  C:59FFH         LINE#         317
  C:59FFH         LINE#         319
  C:5A04H         LINE#         320
  C:5A06H         LINE#         321
  C:5A06H         LINE#         323
  C:5A0AH         LINE#         324
  C:5A13H         LINE#         325
  C:5A13H         LINE#         326
  C:5A13H         LINE#         327
  C:5A13H         LINE#         328
  C:5A15H         LINE#         330
  C:5A15H         LINE#         331
  C:5A18H         LINE#         332
  C:5A18H         LINE#         333
  C:5A18H         LINE#         334
  C:5A18H         LINE#         337
  -------         ENDPROC       CONFIRMACION
  -------         PROC          FORMATO_EEPROM
  -------         DO            
  X:0028H         SYMBOL        dato
  X:0029H         SYMBOL        i
  -------         ENDDO         
  C:58E4H         LINE#         338
BL51 BANKED LINKER/LOCATER V6.22.2.0                                                  10/25/2021  16:12:58  PAGE 30


  C:58E4H         LINE#         339
  C:58E4H         LINE#         340
  C:58EAH         LINE#         343
  C:58FFH         LINE#         344
  C:58FFH         LINE#         345
  C:5909H         LINE#         346
  C:5919H         LINE#         347
  -------         ENDPROC       FORMATO_EEPROM
  -------         ENDMOD        EEPROM

  -------         MODULE        IO_SENSORES
  C:0000H         SYMBOL        _ICE_DUMMY_
  D:0090H         PUBLIC        P1
  D:00B0H         PUBLIC        P3
  C:5D77H         PUBLIC        Dir_board
  B:0090H.1       PUBLIC        DataIn
  C:5E52H         PUBLIC        sel_Auto
  C:4FBEH         PUBLIC        ValidaSensoresPaso
  B:00B0H.3       PUBLIC        busy
  C:5C48H         PUBLIC        ValidaSensor
  C:5E60H         PUBLIC        sel_Sensor1
  C:5E59H         PUBLIC        sel_Sensor2
  B:00B0H.5       PUBLIC        sel_A
  B:00B0H.6       PUBLIC        sel_B
  B:00B0H.7       PUBLIC        sel_C
  C:4F4BH         PUBLIC        msj_lcd_informativo
  C:5E67H         PUBLIC        sel_Dir1
  C:5E6EH         PUBLIC        sel_Dir2
  C:5E4BH         PUBLIC        sel_Funcion
  -------         PROC          SEL_FUNCION
  C:5E4BH         LINE#         26
  C:5E4BH         LINE#         27
  C:5E4BH         LINE#         28
  C:5E4DH         LINE#         29
  C:5E4FH         LINE#         30
  C:5E51H         LINE#         31
  -------         ENDPROC       SEL_FUNCION
  -------         PROC          SEL_AUTO
  C:5E52H         LINE#         33
  C:5E52H         LINE#         34
  C:5E52H         LINE#         35
  C:5E54H         LINE#         36
  C:5E56H         LINE#         37
  C:5E58H         LINE#         38
  -------         ENDPROC       SEL_AUTO
  -------         PROC          SEL_SENSOR2
  C:5E59H         LINE#         49
  C:5E59H         LINE#         50
  C:5E59H         LINE#         51
  C:5E5BH         LINE#         52
  C:5E5DH         LINE#         53
  C:5E5FH         LINE#         54
  -------         ENDPROC       SEL_SENSOR2
  -------         PROC          SEL_SENSOR1
  C:5E60H         LINE#         56
  C:5E60H         LINE#         57
  C:5E60H         LINE#         58
BL51 BANKED LINKER/LOCATER V6.22.2.0                                                  10/25/2021  16:12:58  PAGE 31


  C:5E62H         LINE#         59
  C:5E64H         LINE#         60
  C:5E66H         LINE#         61
  -------         ENDPROC       SEL_SENSOR1
  -------         PROC          SEL_DIR1
  C:5E67H         LINE#         63
  C:5E67H         LINE#         64
  C:5E67H         LINE#         65
  C:5E69H         LINE#         66
  C:5E6BH         LINE#         67
  C:5E6DH         LINE#         68
  -------         ENDPROC       SEL_DIR1
  -------         PROC          SEL_DIR2
  C:5E6EH         LINE#         70
  C:5E6EH         LINE#         71
  C:5E6EH         LINE#         72
  C:5E70H         LINE#         73
  C:5E72H         LINE#         74
  C:5E74H         LINE#         75
  -------         ENDPROC       SEL_DIR2
  -------         PROC          VALIDASENSOR
  -------         DO            
  D:0007H         SYMBOL        Valido
  D:0004H         SYMBOL        Tmin
  -------         ENDDO         
  C:5C48H         LINE#         77
  C:5C48H         LINE#         78
  C:5C48H         LINE#         80
  C:5C4AH         LINE#         81
  C:5C4EH         LINE#         82
  C:5C59H         LINE#         83
  C:5C59H         LINE#         84
  C:5C5EH         LINE#         85
  C:5C62H         LINE#         86
  C:5C62H         LINE#         87
  C:5C64H         LINE#         88
  C:5C64H         LINE#         89
  C:5C66H         LINE#         90
  C:5C66H         LINE#         91
  -------         ENDPROC       VALIDASENSOR
  -------         PROC          DIR_BOARD
  -------         DO            
  D:0007H         SYMBOL        Board
  -------         ENDDO         
  C:5D77H         LINE#         95
  C:5D77H         LINE#         96
  C:5D77H         LINE#         97
  C:5D79H         LINE#         99
  C:5D7CH         LINE#         100
  C:5D7FH         LINE#         101
  C:5D7FH         LINE#         102
  C:5D80H         LINE#         103
  C:5D80H         LINE#         104
  C:5D83H         LINE#         105
  C:5D86H         LINE#         106
  C:5D86H         LINE#         107
  C:5D88H         LINE#         108
BL51 BANKED LINKER/LOCATER V6.22.2.0                                                  10/25/2021  16:12:58  PAGE 32


  C:5D88H         LINE#         109
  C:5D88H         LINE#         110
  -------         ENDPROC       DIR_BOARD
  -------         PROC          VALIDASENSORESPASO
  C:4FBEH         LINE#         115
  C:4FBEH         LINE#         116
  C:4FBEH         LINE#         118
  C:4FC1H         LINE#         119
  C:4FC4H         LINE#         120
  C:4FC4H         LINE#         121
  C:4FD2H         LINE#         122
  C:4FD2H         LINE#         123
  C:4FD5H         LINE#         124
  C:4FD8H         LINE#         125
  C:4FDBH         LINE#         126
  C:4FE0H         LINE#         127
  C:4FE0H         LINE#         128
  C:4FE7H         LINE#         129
  C:4FEBH         LINE#         130
  C:4FEDH         LINE#         132
  C:4FEDH         LINE#         134
  C:4FEDH         LINE#         135
  C:4FF4H         LINE#         136
  C:4FF9H         LINE#         137
  C:4FFBH         LINE#         138
  C:4FFBH         LINE#         141
  C:4FFBH         LINE#         143
  C:4FFEH         LINE#         144
  C:5003H         LINE#         145
  C:5003H         LINE#         147
  C:500AH         LINE#         148
  C:5010H         LINE#         149
  C:5013H         LINE#         150
  C:5013H         LINE#         152
  C:5013H         LINE#         153
  C:5017H         LINE#         154
  C:5019H         LINE#         155
  C:5019H         LINE#         158
  C:5019H         LINE#         159
  C:5019H         LINE#         161
  C:5019H         LINE#         162
  C:501FH         LINE#         163
  C:5021H         LINE#         164
  C:5021H         LINE#         165
  C:5021H         LINE#         166
  C:5021H         LINE#         167
  C:502AH         LINE#         168
  C:502CH         LINE#         169
  C:502CH         LINE#         171
  -------         ENDPROC       VALIDASENSORESPASO
  -------         PROC          MSJ_LCD_INFORMATIVO
  -------         DO            
  X:000EH         SYMBOL        toggle
  X:000FH         SYMBOL        info
  -------         ENDDO         
  C:4F4BH         LINE#         180
  C:4F4BH         LINE#         181
BL51 BANKED LINKER/LOCATER V6.22.2.0                                                  10/25/2021  16:12:58  PAGE 33


  C:4F4BH         LINE#         185
  C:4F4EH         LINE#         186
  C:4F51H         LINE#         187
  C:4F51H         LINE#         188
  C:4F5BH         LINE#         189
  C:4F5BH         LINE#         190
  C:4F5EH         LINE#         191
  C:4F5EH         LINE#         192
  C:4F60H         LINE#         193
  C:4F63H         LINE#         194
  C:4F69H         LINE#         195
  C:4F69H         LINE#         196
  C:4F6BH         LINE#         197
  C:4F77H         LINE#         198
  C:4F77H         LINE#         199
  C:4F7AH         LINE#         200
  C:4F7AH         LINE#         201
  C:4F7CH         LINE#         202
  C:4F7FH         LINE#         203
  C:4F85H         LINE#         204
  C:4F85H         LINE#         205
  C:4F87H         LINE#         206
  C:4F93H         LINE#         207
  C:4F93H         LINE#         208
  C:4F96H         LINE#         209
  C:4F96H         LINE#         210
  C:4F98H         LINE#         211
  C:4FA4H         LINE#         212
  C:4FA4H         LINE#         213
  C:4FA6H         LINE#         214
  C:4FADH         LINE#         216
  C:4FB2H         LINE#         217
  C:4FB2H         LINE#         219
  C:4FB2H         LINE#         221
  C:4FB2H         LINE#         223
  C:4FB5H         LINE#         224
  C:4FB8H         LINE#         225
  C:4FB8H         LINE#         226
  C:4FBDH         LINE#         227
  C:4FBDH         LINE#         229
  -------         ENDPROC       MSJ_LCD_INFORMATIVO
  -------         ENDMOD        IO_SENSORES

  -------         MODULE        MONITOR
  C:0000H         SYMBOL        _ICE_DUMMY_
  D:0080H         PUBLIC        P0
  D:0090H         PUBLIC        P1
  C:57E5H         PUBLIC        _Monitor_chr
  B:0080H.0       PUBLIC        rx_ip
  C:3917H         PUBLIC        _Cmd_LPR_Salida_print
  B:0090H.7       PUBLIC        lock
  C:47BDH         PUBLIC        _recibe_cmd_Monitor
  C:3BBDH         PUBLIC        _Cmd_LPR_Salida_wiegand
  C:45F1H         PUBLIC        _Valida_Trama_Monitor
  -------         PROC          _RECIBE_CMD_MONITOR
  X:000EH         SYMBOL        buffer
  -------         DO            
BL51 BANKED LINKER/LOCATER V6.22.2.0                                                  10/25/2021  16:12:58  PAGE 34


  X:0011H         SYMBOL        j
  X:0012H         SYMBOL        NumDatos
  D:0005H         SYMBOL        time_out
  X:0013H         SYMBOL        MaxChrRx
  D:0006H         SYMBOL        contador
  -------         ENDDO         
  C:47BDH         LINE#         40
  C:47C8H         LINE#         41
  C:47C8H         LINE#         45
  C:47CDH         LINE#         46
  C:47D1H         LINE#         48
  C:47D9H         LINE#         49
  C:47D9H         LINE#         50
  C:47EAH         LINE#         51
  C:47EAH         LINE#         52
  C:47EDH         LINE#         53
  C:47EEH         LINE#         54
  C:47F4H         LINE#         55
  C:47F4H         LINE#         56
  C:47F9H         LINE#         57
  C:4802H         LINE#         58
  C:4802H         LINE#         59
  C:4804H         LINE#         60
  C:480CH         LINE#         61
  C:480CH         LINE#         62
  C:480EH         LINE#         63
  C:4813H         LINE#         65
  C:4825H         LINE#         66
  C:482FH         LINE#         67
  C:4835H         LINE#         68
  C:483DH         LINE#         70
  C:484CH         LINE#         71
  C:484CH         LINE#         72
  C:4851H         LINE#         73
  -------         ENDPROC       _RECIBE_CMD_MONITOR
  -------         PROC          _VALIDA_TRAMA_MONITOR
  X:000EH         SYMBOL        buffer
  D:0005H         SYMBOL        length_trama
  -------         DO            
  D:0007H         SYMBOL        j
  D:0006H         SYMBOL        p
  -------         ENDDO         
  C:45F1H         LINE#         79
  C:45FCH         LINE#         80
  C:45FCH         LINE#         81
  C:45FEH         LINE#         82
  C:4600H         LINE#         83
  C:4600H         LINE#         84
  C:461EH         LINE#         85
  C:461EH         LINE#         86
  C:4620H         LINE#         87
  C:4625H         LINE#         88
  C:4626H         LINE#         89
  C:463BH         LINE#         90
  C:463BH         LINE#         93
  C:463BH         LINE#         94
  C:465BH         LINE#         95
BL51 BANKED LINKER/LOCATER V6.22.2.0                                                  10/25/2021  16:12:58  PAGE 35


  C:465CH         LINE#         96
  C:465DH         LINE#         97
  C:4669H         LINE#         98
  C:467DH         LINE#         99
  C:4689H         LINE#         100
  C:468BH         LINE#         104
  C:468BH         LINE#         105
  C:468BH         LINE#         106
  C:468BH         LINE#         108
  C:468BH         LINE#         109
  -------         ENDPROC       _VALIDA_TRAMA_MONITOR
  -------         PROC          _MONITOR_CHR
  X:003FH         SYMBOL        str
  X:0042H         SYMBOL        num_char
  -------         DO            
  X:0043H         SYMBOL        j
  -------         ENDDO         
  C:57E5H         LINE#         156
  C:57F3H         LINE#         157
  C:57F3H         LINE#         159
  C:5801H         LINE#         160
  C:5801H         LINE#         161
  C:5813H         LINE#         162
  C:581DH         LINE#         163
  C:5825H         LINE#         164
  -------         ENDPROC       _MONITOR_CHR
  -------         PROC          _CMD_LPR_SALIDA_WIEGAND
  X:001DH         SYMBOL        buffer
  -------         DO            
  X:0020H         SYMBOL        Buffer_Lpr
  X:003EH         SYMBOL        j
  -------         ENDDO         
  C:3BBDH         LINE#         169
  C:3BC8H         LINE#         170
  C:3BC8H         LINE#         172
  C:3BCEH         LINE#         173
  C:3BD3H         LINE#         174
  C:3BDBH         LINE#         175
  C:3BDFH         LINE#         176
  C:3BE8H         LINE#         177
  C:3BE8H         LINE#         178
  C:3BF9H         LINE#         179
  C:3BFBH         LINE#         181
  C:3BFBH         LINE#         182
  C:3C0CH         LINE#         183
  C:3C0CH         LINE#         187
  C:3C23H         LINE#         188
  C:3C23H         LINE#         189
  C:3C32H         LINE#         190
  C:3C3CH         LINE#         192
  C:3C44H         LINE#         193
  C:3C58H         LINE#         195
  C:3C68H         LINE#         196
  C:3C79H         LINE#         197
  C:3C86H         LINE#         201
  -------         ENDPROC       _CMD_LPR_SALIDA_WIEGAND
  -------         PROC          _CMD_LPR_SALIDA_PRINT
BL51 BANKED LINKER/LOCATER V6.22.2.0                                                  10/25/2021  16:12:58  PAGE 36


  X:0014H         SYMBOL        msj
  X:0017H         SYMBOL        vehiculo
  -------         DO            
  X:0018H         SYMBOL        Buffer_Lpr
  X:0036H         SYMBOL        j
  X:0037H         SYMBOL        temp
  -------         ENDDO         
  C:3917H         LINE#         270
  C:3925H         LINE#         271
  C:3925H         LINE#         276
  C:3929H         LINE#         277
  C:3931H         LINE#         278
  C:3935H         LINE#         279
  C:3938H         LINE#         280
  C:3940H         LINE#         281
  C:3943H         LINE#         282
  C:3959H         LINE#         283
  C:3977H         LINE#         284
  C:397DH         LINE#         285
  C:3980H         LINE#         286
  C:3996H         LINE#         287
  C:39A4H         LINE#         289
  C:39B0H         LINE#         292
  C:39C1H         LINE#         293
  C:39CEH         LINE#         294
  C:39DAH         LINE#         295
  C:39E6H         LINE#         297
  C:39F5H         LINE#         299
  -------         ENDPROC       _CMD_LPR_SALIDA_PRINT
  -------         ENDMOD        MONITOR

  -------         MODULE        NUM_SERIE
  C:0000H         SYMBOL        _ICE_DUMMY_
  C:5DDFH         PUBLIC        _graba_serie_ascii_hex
  -------         PROC          _GRABA_SERIE_ASCII_HEX
  D:0001H         SYMBOL        buffer
  C:5DDFH         LINE#         18
  C:5DDFH         LINE#         19
  C:5DDFH         LINE#         22
  C:5DE6H         LINE#         23
  -------         ENDPROC       _GRABA_SERIE_ASCII_HEX
  -------         ENDMOD        NUM_SERIE

  -------         MODULE        PANTALLAS
  C:0000H         SYMBOL        _ICE_DUMMY_
  D:0080H         PUBLIC        P0
  C:5AC9H         PUBLIC        Reloj_Pantalla_Lcd
  C:48E2H         PUBLIC        _PantallaLCD
  C:5A19H         PUBLIC        _LCD_txt
  C:51D9H         PUBLIC        _Raspberry_data
  C:5CA4H         PUBLIC        _tx_chrlcd
  C:3904H         SYMBOL        _?ix1000
  C:3911H         SYMBOL        _?ix1001
  C:5719H         PUBLIC        _LCD_txt_num_char
  C:2FC9H         PUBLIC        _PantallaLCD_LINEA_2
  B:0098H.4       PUBLIC        REN
  B:0080H.7       PUBLIC        sel_com
BL51 BANKED LINKER/LOCATER V6.22.2.0                                                  10/25/2021  16:12:58  PAGE 37


  -------         PROC          _TX_CHRLCD
  D:0007H         SYMBOL        data_com
  X:0055H         SYMBOL        enable_char_add
  -------         DO            
  X:0056H         SYMBOL        d
  -------         ENDDO         
  C:5CA4H         LINE#         58
  C:5CA9H         LINE#         59
  C:5CA9H         LINE#         62
  C:5CB1H         LINE#         63
  C:5CB7H         LINE#         64
  C:5CC1H         LINE#         67
  -------         ENDPROC       _TX_CHRLCD
  -------         PROC          _LCD_TXT
  X:0050H         SYMBOL        msg
  X:0053H         SYMBOL        enable_char_add
  -------         DO            
  X:0054H         SYMBOL        i
  -------         ENDDO         
  C:5A19H         LINE#         73
  C:5A27H         LINE#         74
  C:5A27H         LINE#         77
  C:5A44H         LINE#         78
  C:5A44H         LINE#         79
  C:5A4CH         LINE#         80
  C:5A54H         LINE#         81
  -------         ENDPROC       _LCD_TXT
  -------         PROC          _LCD_TXT_NUM_CHAR
  X:002AH         SYMBOL        msg
  X:002DH         SYMBOL        length_char
  X:002EH         SYMBOL        enable_char_add
  -------         DO            
  X:002FH         SYMBOL        i
  -------         ENDDO         
  C:5719H         LINE#         88
  C:5727H         LINE#         89
  C:5727H         LINE#         92
  C:573AH         LINE#         93
  C:573AH         LINE#         94
  C:5756H         LINE#         95
  C:575EH         LINE#         96
  -------         ENDPROC       _LCD_TXT_NUM_CHAR
  -------         PROC          RELOJ_PANTALLA_LCD
  -------         DO            
  X:001DH         SYMBOL        Ini_Clock_LCD
  -------         ENDDO         
  C:5AC9H         LINE#         103
  C:5AC9H         LINE#         104
  C:5AC9H         LINE#         106
  C:5ADCH         LINE#         107
  C:5ADEH         LINE#         108
  C:5AE7H         LINE#         112
  C:5AE9H         LINE#         113
  C:5AF9H         LINE#         115
  C:5AFBH         LINE#         116
  C:5AFDH         LINE#         117
  -------         ENDPROC       RELOJ_PANTALLA_LCD
BL51 BANKED LINKER/LOCATER V6.22.2.0                                                  10/25/2021  16:12:58  PAGE 38


  -------         PROC          L?0046
  -------         ENDPROC       L?0046
  -------         PROC          _RASPBERRY_DATA
  X:0050H         SYMBOL        msjpantalla
  -------         DO            
  X:0053H         SYMBOL        i
  X:0054H         SYMBOL        lenth_cadena
  D:0007H         SYMBOL        d
  -------         ENDDO         
  C:51D9H         LINE#         118
  C:51E4H         LINE#         119
  C:51E4H         LINE#         126
  C:51ECH         LINE#         128
  C:51FFH         LINE#         129
  C:51FFH         LINE#         132
  C:5216H         LINE#         133
  C:5222H         LINE#         134
  C:5222H         LINE#         135
  C:5225H         LINE#         137
  C:522DH         LINE#         141
  -------         ENDPROC       _RASPBERRY_DATA
  -------         PROC          _PANTALLALCD
  D:0007H         SYMBOL        cod_msg
  -------         DO            
  X:001DH         SYMBOL        datos
  -------         ENDDO         
  C:48E2H         LINE#         149
  C:48E2H         LINE#         150
  C:48E2H         LINE#         160
  C:48E4H         LINE#         162
  C:48EAH         LINE#         163
  C:48EAH         LINE#         167
  C:48EAH         LINE#         168
  C:48EAH         LINE#         280
  C:48EAH         LINE#         281
  C:48ECH         LINE#         282
  C:48EDH         LINE#         284
  C:48EDH         LINE#         285
  C:48EFH         LINE#         286
  C:490BH         LINE#         287
  C:490BH         LINE#         288
  C:490BH         LINE#         289
  C:4917H         LINE#         290
  C:4917H         LINE#         291
  C:4919H         LINE#         292
  C:4919H         LINE#         293
  C:4925H         LINE#         294
  C:4925H         LINE#         295
  C:4927H         LINE#         296
  C:4927H         LINE#         297
  C:4933H         LINE#         298
  C:4933H         LINE#         299
  C:4935H         LINE#         300
  C:4935H         LINE#         301
  C:4941H         LINE#         302
  C:4944H         LINE#         304
  C:4944H         LINE#         305
BL51 BANKED LINKER/LOCATER V6.22.2.0                                                  10/25/2021  16:12:58  PAGE 39


  C:4950H         LINE#         306
  C:4950H         LINE#         307
  C:4952H         LINE#         308
  C:4952H         LINE#         309
  C:495EH         LINE#         310
  C:495EH         LINE#         311
  C:4960H         LINE#         313
  C:4960H         LINE#         314
  C:496CH         LINE#         315
  C:496FH         LINE#         316
  C:496FH         LINE#         317
  C:496FH         LINE#         318
  C:496FH         LINE#         320
  C:496FH         LINE#         321
  C:4971H         LINE#         322
  C:4971H         LINE#         323
  -------         ENDPROC       _PANTALLALCD
  -------         PROC          _PANTALLALCD_LINEA_2
  X:001DH         SYMBOL        cod_msg
  X:001EH         SYMBOL        buffer
  -------         DO            
  X:0021H         SYMBOL        Ini_LCD_Line_one
  X:0027H         SYMBOL        datos
  X:004FH         SYMBOL        num_chr
  -------         ENDDO         
  C:2FC9H         LINE#         324
  C:2FD7H         LINE#         325
  C:2FD7H         LINE#         327
  C:2FEAH         LINE#         332
  C:2FECH         LINE#         334
  C:2FF2H         LINE#         335
  C:2FF2H         LINE#         338
  C:2FFAH         LINE#         339
  C:2FFAH         LINE#         341
  C:2FFAH         LINE#         342
  C:3005H         LINE#         343
  C:3013H         LINE#         344
  C:3028H         LINE#         345
  C:302EH         LINE#         346
  C:303AH         LINE#         347
  C:3045H         LINE#         348
  C:3055H         LINE#         353
  C:3055H         LINE#         356
  C:3055H         LINE#         357
  C:3057H         LINE#         358
  C:3058H         LINE#         360
  C:3058H         LINE#         361
  C:305AH         LINE#         363
  C:3069H         LINE#         364
  C:3069H         LINE#         365
  C:3069H         LINE#         366
  C:3078H         LINE#         367
  C:308BH         LINE#         368
  C:30A5H         LINE#         369
  C:30A5H         LINE#         370
  C:30A5H         LINE#         371
  C:30A5H         LINE#         373
BL51 BANKED LINKER/LOCATER V6.22.2.0                                                  10/25/2021  16:12:58  PAGE 40


  C:30A7H         LINE#         374
  C:30A7H         LINE#         377
  C:30B6H         LINE#         379
  C:30D4H         LINE#         381
  C:30EBH         LINE#         384
  C:30F4H         LINE#         387
  C:30F4H         LINE#         389
  C:30F4H         LINE#         390
  C:30F6H         LINE#         391
  C:30F6H         LINE#         392
  -------         ENDPROC       _PANTALLALCD_LINEA_2
  -------         ENDMOD        PANTALLAS

  -------         MODULE        PROG
  C:0000H         SYMBOL        _ICE_DUMMY_
  C:2E8BH         PUBLIC        Prog_Sin_Cobro
  C:3330H         PUBLIC        Prog_debug
  C:549AH         PUBLIC        Prog_Direccion
  C:5453H         PUBLIC        Prog_Nom_Parq
  C:4985H         PUBLIC        _GetOption
  X:00B5H         PUBLIC        validacion
  X:00BEH         PUBLIC        cursor
  C:3C93H         PUBLIC        Show
  C:540CH         PUBLIC        Prog_Nit
  C:3624H         PUBLIC        Prog_Comparacion_Activa
  C:428FH         PUBLIC        prog_id_cliente
  C:576AH         PUBLIC        _ValidarClave
  C:268CH         PUBLIC        menu
  C:342CH         PUBLIC        Prog_Use_Lpr
  C:516EH         PUBLIC        _ListaComandos
  C:0D4EH         SYMBOL        _?ix1000
  C:53C5H         PUBLIC        Prog_Cliente
  C:0D52H         SYMBOL        _?ix1001
  C:0D56H         SYMBOL        _?ix1002
  C:54E1H         PUBLIC        Prog_Msj1
  C:5528H         PUBLIC        Prog_Msj2
  C:405EH         PUBLIC        Prog_tiempo_gracia
  C:4ED3H         PUBLIC        _IngresaDato
  C:556FH         PUBLIC        Prog_Msj3
  X:00D2H         PUBLIC        comandos
  C:55B6H         PUBLIC        Prog_Msj4
  C:55FDH         PUBLIC        Prog_Msj5
  C:5644H         PUBLIC        Prog_Msj6
  C:568BH         PUBLIC        Prog_Msj7
  C:5D28H         PUBLIC        DisplayCursor
  C:3FA1H         PUBLIC        prog_cod_park
  C:3528H         PUBLIC        tipo_pantalla
  C:582CH         PUBLIC        _GetCMD
  C:3720H         PUBLIC        Prog_QR_barras
  -------         PROC          _LISTACOMANDOS
  X:003FH         SYMBOL        cmd
  -------         DO            
  X:0042H         SYMBOL        buf
  X:0045H         SYMBOL        i
  -------         ENDDO         
  C:516EH         LINE#         83
  C:5179H         LINE#         84
BL51 BANKED LINKER/LOCATER V6.22.2.0                                                  10/25/2021  16:12:58  PAGE 41


  C:5179H         LINE#         88
  C:518CH         LINE#         89
  C:518CH         LINE#         90
  C:51A4H         LINE#         91
  C:51BFH         LINE#         92
  C:51C5H         LINE#         93
  C:51CDH         LINE#         95
  C:51CFH         LINE#         96
  -------         ENDPROC       _LISTACOMANDOS
  -------         PROC          L?0143
  -------         ENDPROC       L?0143
  -------         PROC          _VALIDARCLAVE
  X:003FH         SYMBOL        buffer
  -------         DO            
  X:0042H         SYMBOL        buf
  -------         ENDDO         
  C:576AH         LINE#         102
  C:5775H         LINE#         103
  C:5775H         LINE#         106
  C:5784H         LINE#         107
  C:579FH         LINE#         108
  C:57A1H         LINE#         111
  C:57A3H         LINE#         112
  -------         ENDPROC       _VALIDARCLAVE
  C:5826H         SYMBOL        L?0142
  -------         PROC          L?0141
  -------         ENDPROC       L?0141
  C:5826H         SYMBOL        L?0142
  -------         PROC          _GETCMD
  X:003FH         SYMBOL        in
  -------         DO            
  X:0042H         SYMBOL        tokens
  -------         ENDDO         
  C:582CH         LINE#         119
  C:5837H         LINE#         120
  C:5837H         LINE#         121
  C:584AH         LINE#         122
  -------         ENDPROC       _GETCMD
  -------         PROC          L?0140
  -------         ENDPROC       L?0140
  -------         PROC          _GETOPTION
  X:003FH         SYMBOL        in
  -------         DO            
  X:0042H         SYMBOL        tokensSpace
  X:0046H         SYMBOL        tokensQuote
  -------         ENDDO         
  C:4985H         LINE#         128
  C:4990H         LINE#         129
  C:4990H         LINE#         130
  C:49A3H         LINE#         131
  C:49B6H         LINE#         134
  C:49C8H         LINE#         135
  C:49D4H         LINE#         138
  C:49DBH         LINE#         139
  C:49E8H         LINE#         141
  C:4A01H         LINE#         142
  -------         ENDPROC       _GETOPTION
BL51 BANKED LINKER/LOCATER V6.22.2.0                                                  10/25/2021  16:12:58  PAGE 42


  -------         PROC          DISPLAYCURSOR
  C:5D28H         LINE#         147
  C:5D28H         LINE#         148
  C:5D28H         LINE#         149
  -------         ENDPROC       DISPLAYCURSOR
  C:4ECFH         SYMBOL        L?0139
  -------         PROC          L?0138
  -------         ENDPROC       L?0138
  C:4ECFH         SYMBOL        L?0139
  -------         PROC          _INGRESADATO
  X:007DH         SYMBOL        buffer
  X:0080H         SYMBOL        modo
  -------         DO            
  D:0006H         SYMBOL        i
  -------         ENDDO         
  C:4ED3H         LINE#         156
  C:4EE1H         LINE#         157
  C:4EE1H         LINE#         162
  C:4EE1H         LINE#         163
  C:4EF3H         LINE#         164
  C:4EF9H         LINE#         165
  C:4EF9H         LINE#         166
  C:4F14H         LINE#         167
  C:4F16H         LINE#         169
  C:4F16H         LINE#         170
  C:4F1BH         LINE#         171
  C:4F1BH         LINE#         172
  C:4F2CH         LINE#         173
  C:4F36H         LINE#         174
  C:4F45H         LINE#         176
  C:4F4AH         LINE#         180
  -------         ENDPROC       _INGRESADATO
  -------         PROC          PROG_ID_CLIENTE
  -------         DO            
  X:003FH         SYMBOL        buffer
  X:0049H         SYMBOL        dataee
  -------         ENDDO         
  C:428FH         LINE#         185
  C:428FH         LINE#         186
  C:428FH         LINE#         190
  C:42A1H         LINE#         191
  C:42BEH         LINE#         193
  C:42D5H         LINE#         195
  C:42DEH         LINE#         196
  C:42E5H         LINE#         197
  C:42F6H         LINE#         198
  C:42FFH         LINE#         200
  C:4311H         LINE#         201
  C:432EH         LINE#         202
  -------         ENDPROC       PROG_ID_CLIENTE
  -------         PROC          PROG_COD_PARK
  -------         DO            
  X:003FH         SYMBOL        buffer
  X:0049H         SYMBOL        dataee
  -------         ENDDO         
  C:3FA1H         LINE#         207
  C:3FA1H         LINE#         208
BL51 BANKED LINKER/LOCATER V6.22.2.0                                                  10/25/2021  16:12:58  PAGE 43


  C:3FA1H         LINE#         212
  C:3FB4H         LINE#         213
  C:3FD1H         LINE#         215
  C:3FE8H         LINE#         217
  C:3FF1H         LINE#         218
  C:3FFCH         LINE#         219
  C:400DH         LINE#         220
  C:4017H         LINE#         222
  C:402AH         LINE#         223
  C:4047H         LINE#         224
  -------         ENDPROC       PROG_COD_PARK
  -------         PROC          PROG_TIEMPO_GRACIA
  -------         DO            
  X:003FH         SYMBOL        buffer
  X:0049H         SYMBOL        dataee
  -------         ENDDO         
  C:405EH         LINE#         229
  C:405EH         LINE#         230
  C:405EH         LINE#         234
  C:4071H         LINE#         235
  C:408EH         LINE#         237
  C:40A5H         LINE#         239
  C:40AEH         LINE#         240
  C:40B9H         LINE#         241
  C:40CAH         LINE#         242
  C:40D4H         LINE#         244
  C:40E7H         LINE#         245
  C:4104H         LINE#         246
  -------         ENDPROC       PROG_TIEMPO_GRACIA
  -------         PROC          PROG_SIN_COBRO
  -------         DO            
  X:003FH         SYMBOL        buffer
  X:0049H         SYMBOL        dataee
  -------         ENDDO         
  C:2E8BH         LINE#         252
  C:2E8BH         LINE#         253
  C:2E8BH         LINE#         259
  C:2E9EH         LINE#         260
  C:2EBBH         LINE#         261
  C:2EC5H         LINE#         262
  C:2EC5H         LINE#         263
  C:2ED8H         LINE#         264
  C:2EDAH         LINE#         265
  C:2EE6H         LINE#         266
  C:2EE6H         LINE#         267
  C:2EF9H         LINE#         268
  C:2EFBH         LINE#         270
  C:2EFBH         LINE#         271
  C:2F12H         LINE#         272
  C:2F12H         LINE#         274
  C:2F1BH         LINE#         275
  C:2F26H         LINE#         276
  C:2F37H         LINE#         277
  C:2F41H         LINE#         279
  C:2F54H         LINE#         280
  C:2F71H         LINE#         281
  C:2F7BH         LINE#         282
BL51 BANKED LINKER/LOCATER V6.22.2.0                                                  10/25/2021  16:12:58  PAGE 44


  C:2F7BH         LINE#         283
  C:2F8EH         LINE#         284
  C:2F90H         LINE#         285
  C:2F9CH         LINE#         286
  C:2F9CH         LINE#         287
  C:2FAFH         LINE#         288
  C:2FB1H         LINE#         290
  C:2FB1H         LINE#         291
  C:2FC8H         LINE#         292
  C:2FC8H         LINE#         294
  -------         ENDPROC       PROG_SIN_COBRO
  -------         PROC          PROG_DEBUG
  -------         DO            
  X:003FH         SYMBOL        buffer
  X:0049H         SYMBOL        dataee
  -------         ENDDO         
  C:3330H         LINE#         298
  C:3330H         LINE#         299
  C:3330H         LINE#         304
  C:3343H         LINE#         305
  C:3360H         LINE#         306
  C:336AH         LINE#         307
  C:336AH         LINE#         308
  C:337DH         LINE#         309
  C:337FH         LINE#         311
  C:337FH         LINE#         312
  C:3396H         LINE#         313
  C:3396H         LINE#         315
  C:339FH         LINE#         316
  C:33AAH         LINE#         317
  C:33BBH         LINE#         318
  C:33C5H         LINE#         320
  C:33D8H         LINE#         321
  C:33F5H         LINE#         322
  C:33FFH         LINE#         323
  C:33FFH         LINE#         324
  C:3412H         LINE#         325
  C:3414H         LINE#         327
  C:3414H         LINE#         328
  C:342BH         LINE#         329
  C:342BH         LINE#         330
  -------         ENDPROC       PROG_DEBUG
  -------         PROC          PROG_USE_LPR
  -------         DO            
  X:003FH         SYMBOL        buffer
  X:0049H         SYMBOL        dataee
  -------         ENDDO         
  C:342CH         LINE#         334
  C:342CH         LINE#         335
  C:342CH         LINE#         340
  C:343FH         LINE#         341
  C:345CH         LINE#         342
  C:3466H         LINE#         343
  C:3466H         LINE#         344
  C:3479H         LINE#         345
  C:347BH         LINE#         347
  C:347BH         LINE#         348
BL51 BANKED LINKER/LOCATER V6.22.2.0                                                  10/25/2021  16:12:58  PAGE 45


  C:3492H         LINE#         349
  C:3492H         LINE#         351
  C:349BH         LINE#         352
  C:34A6H         LINE#         353
  C:34B7H         LINE#         354
  C:34C1H         LINE#         356
  C:34D4H         LINE#         357
  C:34F1H         LINE#         358
  C:34FBH         LINE#         359
  C:34FBH         LINE#         360
  C:350EH         LINE#         361
  C:3510H         LINE#         363
  C:3510H         LINE#         364
  C:3527H         LINE#         365
  C:3527H         LINE#         366
  -------         ENDPROC       PROG_USE_LPR
  -------         PROC          TIPO_PANTALLA
  -------         DO            
  X:003FH         SYMBOL        buffer
  X:0049H         SYMBOL        dataee
  -------         ENDDO         
  C:3528H         LINE#         372
  C:3528H         LINE#         373
  C:3528H         LINE#         378
  C:353BH         LINE#         379
  C:3558H         LINE#         380
  C:3562H         LINE#         381
  C:3562H         LINE#         382
  C:3575H         LINE#         383
  C:3577H         LINE#         385
  C:3577H         LINE#         386
  C:358EH         LINE#         387
  C:358EH         LINE#         389
  C:3597H         LINE#         390
  C:35A2H         LINE#         391
  C:35B3H         LINE#         392
  C:35BDH         LINE#         394
  C:35D0H         LINE#         395
  C:35EDH         LINE#         396
  C:35F7H         LINE#         397
  C:35F7H         LINE#         398
  C:360AH         LINE#         399
  C:360CH         LINE#         401
  C:360CH         LINE#         402
  C:3623H         LINE#         403
  C:3623H         LINE#         405
  -------         ENDPROC       TIPO_PANTALLA
  -------         PROC          PROG_COMPARACION_ACTIVA
  -------         DO            
  X:003FH         SYMBOL        buffer
  X:0049H         SYMBOL        dataee
  -------         ENDDO         
  C:3624H         LINE#         412
  C:3624H         LINE#         413
  C:3624H         LINE#         418
  C:3637H         LINE#         419
  C:3654H         LINE#         420
BL51 BANKED LINKER/LOCATER V6.22.2.0                                                  10/25/2021  16:12:58  PAGE 46


  C:365EH         LINE#         421
  C:365EH         LINE#         422
  C:3671H         LINE#         423
  C:3673H         LINE#         425
  C:3673H         LINE#         426
  C:368AH         LINE#         427
  C:368AH         LINE#         429
  C:3693H         LINE#         430
  C:369EH         LINE#         431
  C:36AFH         LINE#         432
  C:36B9H         LINE#         434
  C:36CCH         LINE#         435
  C:36E9H         LINE#         436
  C:36F3H         LINE#         437
  C:36F3H         LINE#         438
  C:3706H         LINE#         439
  C:3708H         LINE#         441
  C:3708H         LINE#         442
  C:371FH         LINE#         443
  C:371FH         LINE#         444
  -------         ENDPROC       PROG_COMPARACION_ACTIVA
  -------         PROC          PROG_QR_BARRAS
  -------         DO            
  X:003FH         SYMBOL        buffer
  X:0049H         SYMBOL        dataee
  -------         ENDDO         
  C:3720H         LINE#         448
  C:3720H         LINE#         449
  C:3720H         LINE#         454
  C:3733H         LINE#         455
  C:3750H         LINE#         456
  C:375AH         LINE#         457
  C:375AH         LINE#         458
  C:376DH         LINE#         459
  C:376FH         LINE#         461
  C:376FH         LINE#         462
  C:3786H         LINE#         463
  C:3786H         LINE#         465
  C:378FH         LINE#         466
  C:379AH         LINE#         467
  C:37ABH         LINE#         468
  C:37B5H         LINE#         470
  C:37C8H         LINE#         471
  C:37E5H         LINE#         472
  C:37EFH         LINE#         473
  C:37EFH         LINE#         474
  C:3802H         LINE#         475
  C:3804H         LINE#         477
  C:3804H         LINE#         478
  C:381BH         LINE#         479
  C:381BH         LINE#         480
  -------         ENDPROC       PROG_QR_BARRAS
  -------         PROC          PROG_CLIENTE
  -------         DO            
  X:003FH         SYMBOL        buffer
  -------         ENDDO         
  C:53C5H         LINE#         484
BL51 BANKED LINKER/LOCATER V6.22.2.0                                                  10/25/2021  16:12:58  PAGE 47


  C:53C5H         LINE#         485
  C:53C5H         LINE#         488
  C:53CEH         LINE#         489
  C:53D9H         LINE#         491
  C:53E8H         LINE#         492
  C:53F5H         LINE#         493
  -------         ENDPROC       PROG_CLIENTE
  -------         PROC          PROG_NIT
  -------         DO            
  X:003FH         SYMBOL        buffer
  -------         ENDDO         
  C:540CH         LINE#         495
  C:540CH         LINE#         496
  C:540CH         LINE#         499
  C:5415H         LINE#         500
  C:5420H         LINE#         502
  C:542FH         LINE#         503
  C:543CH         LINE#         504
  -------         ENDPROC       PROG_NIT
  -------         PROC          PROG_NOM_PARQ
  -------         DO            
  X:003FH         SYMBOL        buffer
  -------         ENDDO         
  C:5453H         LINE#         509
  C:5453H         LINE#         510
  C:5453H         LINE#         513
  C:545CH         LINE#         514
  C:5467H         LINE#         516
  C:5476H         LINE#         517
  C:5483H         LINE#         518
  -------         ENDPROC       PROG_NOM_PARQ
  -------         PROC          PROG_DIRECCION
  -------         DO            
  X:003FH         SYMBOL        buffer
  -------         ENDDO         
  C:549AH         LINE#         520
  C:549AH         LINE#         521
  C:549AH         LINE#         524
  C:54A3H         LINE#         525
  C:54AEH         LINE#         527
  C:54BDH         LINE#         528
  C:54CAH         LINE#         529
  -------         ENDPROC       PROG_DIRECCION
  -------         PROC          PROG_MSJ1
  -------         DO            
  X:003FH         SYMBOL        buffer
  -------         ENDDO         
  C:54E1H         LINE#         531
  C:54E1H         LINE#         532
  C:54E1H         LINE#         535
  C:54EAH         LINE#         536
  C:54F5H         LINE#         538
  C:5504H         LINE#         539
  C:5511H         LINE#         540
  -------         ENDPROC       PROG_MSJ1
  -------         PROC          PROG_MSJ2
  -------         DO            
BL51 BANKED LINKER/LOCATER V6.22.2.0                                                  10/25/2021  16:12:58  PAGE 48


  X:003FH         SYMBOL        buffer
  -------         ENDDO         
  C:5528H         LINE#         543
  C:5528H         LINE#         544
  C:5528H         LINE#         547
  C:5531H         LINE#         548
  C:553CH         LINE#         550
  C:554BH         LINE#         551
  C:5558H         LINE#         552
  -------         ENDPROC       PROG_MSJ2
  -------         PROC          PROG_MSJ3
  -------         DO            
  X:003FH         SYMBOL        buffer
  -------         ENDDO         
  C:556FH         LINE#         554
  C:556FH         LINE#         555
  C:556FH         LINE#         558
  C:5578H         LINE#         559
  C:5583H         LINE#         561
  C:5592H         LINE#         562
  C:559FH         LINE#         563
  -------         ENDPROC       PROG_MSJ3
  -------         PROC          PROG_MSJ4
  -------         DO            
  X:003FH         SYMBOL        buffer
  -------         ENDDO         
  C:55B6H         LINE#         565
  C:55B6H         LINE#         566
  C:55B6H         LINE#         569
  C:55BFH         LINE#         570
  C:55CAH         LINE#         572
  C:55D9H         LINE#         573
  C:55E6H         LINE#         574
  -------         ENDPROC       PROG_MSJ4
  -------         PROC          PROG_MSJ5
  -------         DO            
  X:003FH         SYMBOL        buffer
  -------         ENDDO         
  C:55FDH         LINE#         576
  C:55FDH         LINE#         577
  C:55FDH         LINE#         580
  C:5606H         LINE#         581
  C:5611H         LINE#         583
  C:5620H         LINE#         584
  C:562DH         LINE#         585
  -------         ENDPROC       PROG_MSJ5
  -------         PROC          PROG_MSJ6
  -------         DO            
  X:003FH         SYMBOL        buffer
  -------         ENDDO         
  C:5644H         LINE#         588
  C:5644H         LINE#         589
  C:5644H         LINE#         592
  C:564DH         LINE#         593
  C:5658H         LINE#         595
  C:5667H         LINE#         596
  C:5674H         LINE#         597
BL51 BANKED LINKER/LOCATER V6.22.2.0                                                  10/25/2021  16:12:58  PAGE 49


  -------         ENDPROC       PROG_MSJ6
  -------         PROC          PROG_MSJ7
  -------         DO            
  X:003FH         SYMBOL        buffer
  -------         ENDDO         
  C:568BH         LINE#         601
  C:568BH         LINE#         602
  C:568BH         LINE#         605
  C:5694H         LINE#         606
  C:569FH         LINE#         608
  C:56AEH         LINE#         609
  C:56BBH         LINE#         610
  -------         ENDPROC       PROG_MSJ7
  -------         PROC          SHOW
  C:3C93H         LINE#         615
  C:3C93H         LINE#         616
  C:3C93H         LINE#         617
  C:3C9CH         LINE#         618
  C:3CA5H         LINE#         619
  C:3CAEH         LINE#         620
  C:3CB7H         LINE#         621
  C:3CC0H         LINE#         622
  C:3CC9H         LINE#         623
  C:3CD2H         LINE#         624
  C:3CDBH         LINE#         625
  C:3CE4H         LINE#         626
  C:3CEDH         LINE#         627
  C:3CF6H         LINE#         628
  C:3CFFH         LINE#         629
  C:3D08H         LINE#         630
  C:3D11H         LINE#         631
  C:3D1AH         LINE#         632
  C:3D23H         LINE#         633
  C:3D2CH         LINE#         634
  C:3D35H         LINE#         635
  C:3D3EH         LINE#         636
  C:3D47H         LINE#         637
  C:3D50H         LINE#         638
  -------         ENDPROC       SHOW
  -------         PROC          MENU
  -------         DO            
  X:000EH         SYMBOL        cmd
  X:0011H         SYMBOL        option1
  X:0014H         SYMBOL        option2
  X:0017H         SYMBOL        opt_buffer
  X:002BH         SYMBOL        buffer
  -------         ENDDO         
  C:268CH         LINE#         646
  C:268CH         LINE#         647
  C:268CH         LINE#         656
  C:2695H         LINE#         661
  C:2695H         LINE#         662
  C:269EH         LINE#         663
  C:26A1H         LINE#         665
  C:26A4H         LINE#         666
  C:26B2H         LINE#         667
  C:26C8H         LINE#         668
BL51 BANKED LINKER/LOCATER V6.22.2.0                                                  10/25/2021  16:12:58  PAGE 50


  C:26DEH         LINE#         669
  C:26E4H         LINE#         672
  C:26E4H         LINE#         673
  C:26EDH         LINE#         675
  C:26F8H         LINE#         676
  C:2706H         LINE#         677
  C:2715H         LINE#         680
  C:271BH         LINE#         683
  C:271EH         LINE#         684
  C:271EH         LINE#         685
  C:271EH         LINE#         686
  C:2721H         LINE#         689
  C:2724H         LINE#         690
  C:2732H         LINE#         691
  C:2746H         LINE#         692
  C:275AH         LINE#         697
  C:2770H         LINE#         698
  C:2770H         LINE#         700
  C:277FH         LINE#         701
  C:2781H         LINE#         702
  C:2791H         LINE#         703
  C:2791H         LINE#         705
  C:27A0H         LINE#         706
  C:27BEH         LINE#         707
  C:27BEH         LINE#         713
  C:27D1H         LINE#         714
  C:27D1H         LINE#         715
  C:2826H         LINE#         716
  C:2826H         LINE#         717
  C:2826H         LINE#         718
  C:2829H         LINE#         720
  C:282CH         LINE#         722
  C:282CH         LINE#         723
  C:282FH         LINE#         724
  C:2832H         LINE#         726
  C:2832H         LINE#         728
  C:2835H         LINE#         730
  C:2838H         LINE#         732
  C:2838H         LINE#         733
  C:283BH         LINE#         735
  C:283EH         LINE#         737
  C:283EH         LINE#         738
  C:2841H         LINE#         739
  C:2844H         LINE#         740
  C:2844H         LINE#         741
  C:2847H         LINE#         742
  C:284AH         LINE#         744
  C:284AH         LINE#         745
  C:284DH         LINE#         746
  C:2850H         LINE#         747
  C:2850H         LINE#         748
  C:2853H         LINE#         750
  C:2856H         LINE#         751
  C:2856H         LINE#         752
  C:2859H         LINE#         754
  C:285CH         LINE#         755
  C:285CH         LINE#         756
BL51 BANKED LINKER/LOCATER V6.22.2.0                                                  10/25/2021  16:12:58  PAGE 51


  C:285FH         LINE#         758
  C:2862H         LINE#         759
  C:2862H         LINE#         761
  C:2865H         LINE#         763
  C:2868H         LINE#         764
  C:2868H         LINE#         766
  C:286BH         LINE#         768
  C:286EH         LINE#         769
  C:286EH         LINE#         771
  C:2871H         LINE#         773
  C:2874H         LINE#         775
  C:2874H         LINE#         777
  C:2877H         LINE#         779
  C:287AH         LINE#         780
  C:287AH         LINE#         782
  C:287DH         LINE#         784
  C:2880H         LINE#         786
  C:2880H         LINE#         788
  C:2883H         LINE#         790
  C:2886H         LINE#         791
  C:2886H         LINE#         793
  C:2889H         LINE#         795
  C:288CH         LINE#         796
  C:288CH         LINE#         798
  C:288FH         LINE#         800
  C:2892H         LINE#         802
  C:2892H         LINE#         804
  C:2895H         LINE#         806
  C:2898H         LINE#         807
  C:2898H         LINE#         809
  C:289BH         LINE#         811
  C:289EH         LINE#         814
  C:289EH         LINE#         816
  C:28A1H         LINE#         817
  C:28A4H         LINE#         818
  C:28A4H         LINE#         821
  C:28A4H         LINE#         825
  C:28A4H         LINE#         826
  C:28C2H         LINE#         827
  C:28C5H         LINE#         828
  C:28C5H         LINE#         829
  C:28C5H         LINE#         830
  C:28C5H         LINE#         831
  -------         ENDPROC       MENU
  -------         ENDMOD        PROG

  -------         MODULE        PTO_PARALELO
  C:0000H         SYMBOL        _ICE_DUMMY_
  D:0080H         PUBLIC        P0
  C:2C04H         PUBLIC        _Trama_print_cod_barras
  D:00A0H         PUBLIC        P2
  D:00B0H         PUBLIC        P3
  B:0080H.2       PUBLIC        led_err_imp
  C:3220H         PUBLIC        load_and_send_id_cod
  C:4726H         PUBLIC        _recibe_port
  B:00B0H.2       PUBLIC        ready
  B:0080H.6       PUBLIC        rx_in_data
BL51 BANKED LINKER/LOCATER V6.22.2.0                                                  10/25/2021  16:12:58  PAGE 52


  C:5D89H         PUBLIC        Pulso_Bus
  C:4C31H         PUBLIC        _send_portERR
  B:00B0H.3       PUBLIC        busy
  C:5AFEH         PUBLIC        load_and_send_info_reloj
  C:4345H         PUBLIC        _send_port
  B:00B0H.4       PUBLIC        port_clk
  C:5E28H         PUBLIC        cond_ini_pto
  -------         PROC          _RECIBE_PORT
  X:000EH         SYMBOL        buffer_port
  -------         DO            
  D:0006H         SYMBOL        count
  X:0011H         SYMBOL        time_out
  X:0012H         SYMBOL        num_data
  X:0013H         SYMBOL        T_ANCHO
  -------         ENDDO         
  C:4726H         LINE#         63
  C:4731H         LINE#         64
  C:4731H         LINE#         68
  C:473AH         LINE#         71
  C:473DH         LINE#         72
  C:4742H         LINE#         73
  C:4744H         LINE#         74
  C:4748H         LINE#         75
  C:474AH         LINE#         76
  C:4752H         LINE#         79
  C:475BH         LINE#         80
  C:475BH         LINE#         81
  C:4763H         LINE#         83
  C:4763H         LINE#         84
  C:4768H         LINE#         85
  C:476CH         LINE#         86
  C:476CH         LINE#         87
  C:4771H         LINE#         88
  C:4771H         LINE#         90
  C:477AH         LINE#         91
  C:4783H         LINE#         92
  C:4783H         LINE#         93
  C:4793H         LINE#         94
  C:4799H         LINE#         95
  C:47A3H         LINE#         96
  C:47ABH         LINE#         97
  C:47ABH         LINE#         99
  C:47ABH         LINE#         101
  C:47ABH         LINE#         103
  C:47AEH         LINE#         105
  C:47B0H         LINE#         107
  C:47B2H         LINE#         108
  C:47B4H         LINE#         109
  C:47B7H         LINE#         111
  C:47BCH         LINE#         112
  -------         ENDPROC       _RECIBE_PORT
  -------         PROC          _SEND_PORT
  X:003DH         SYMBOL        buffer_port
  X:0040H         SYMBOL        length_char
  -------         DO            
  X:0041H         SYMBOL        cont
  X:0045H         SYMBOL        timeOut
BL51 BANKED LINKER/LOCATER V6.22.2.0                                                  10/25/2021  16:12:58  PAGE 53


  X:0046H         SYMBOL        length
  -------         ENDDO         
  C:4345H         LINE#         120
  C:4353H         LINE#         121
  C:4353H         LINE#         126
  C:4357H         LINE#         128
  C:4359H         LINE#         129
  C:435BH         LINE#         130
  C:435DH         LINE#         131
  C:4362H         LINE#         132
  C:4364H         LINE#         133
  C:436EH         LINE#         135
  C:4377H         LINE#         136
  C:4377H         LINE#         137
  C:4379H         LINE#         138
  C:437BH         LINE#         139
  C:439FH         LINE#         140
  C:43B3H         LINE#         141
  C:43B3H         LINE#         142
  C:43B6H         LINE#         143
  C:43B8H         LINE#         144
  C:43B8H         LINE#         145
  C:43BAH         LINE#         146
  C:43C3H         LINE#         147
  C:43C3H         LINE#         151
  C:43C3H         LINE#         153
  C:43D3H         LINE#         154
  C:43D6H         LINE#         155
  C:43E0H         LINE#         157
  C:43E6H         LINE#         158
  C:43E9H         LINE#         160
  C:43E9H         LINE#         161
  C:43ECH         LINE#         162
  C:43EEH         LINE#         163
  C:43F0H         LINE#         164
  C:43F2H         LINE#         165
  -------         ENDPROC       _SEND_PORT
  -------         PROC          _TRAMA_PRINT_COD_BARRAS
  X:0014H         SYMBOL        msj
  X:0017H         SYMBOL        vehiculo
  -------         DO            
  X:0018H         SYMBOL        temp
  X:001EH         SYMBOL        Buffer_port
  X:003CH         SYMBOL        j
  -------         ENDDO         
  C:2C04H         LINE#         372
  C:2C14H         LINE#         373
  C:2C14H         LINE#         376
  C:2C1AH         LINE#         378
  C:2C1EH         LINE#         379
  C:2C22H         LINE#         380
  C:2C25H         LINE#         381
  C:2C2DH         LINE#         382
  C:2C51H         LINE#         383
  C:2C68H         LINE#         386
  C:2C77H         LINE#         388
  C:2C86H         LINE#         390
BL51 BANKED LINKER/LOCATER V6.22.2.0                                                  10/25/2021  16:12:58  PAGE 54


  C:2C95H         LINE#         392
  C:2CA4H         LINE#         394
  C:2CB3H         LINE#         395
  C:2CB6H         LINE#         396
  C:2CCCH         LINE#         397
  C:2CE3H         LINE#         398
  C:2CE9H         LINE#         399
  C:2CECH         LINE#         400
  C:2D02H         LINE#         401
  C:2D10H         LINE#         404
  C:2D1DH         LINE#         406
  C:2D1FH         LINE#         407
  C:2D22H         LINE#         408
  C:2D31H         LINE#         410
  C:2D34H         LINE#         411
  C:2D49H         LINE#         412
  -------         ENDPROC       _TRAMA_PRINT_COD_BARRAS
  -------         PROC          PULSO_BUS
  C:5D89H         LINE#         499
  C:5D89H         LINE#         500
  C:5D89H         LINE#         501
  C:5D8BH         LINE#         502
  C:5D92H         LINE#         503
  C:5D94H         LINE#         504
  -------         ENDPROC       PULSO_BUS
  -------         PROC          _SEND_PORTERR
  X:001DH         SYMBOL        cod_err
  -------         DO            
  X:001EH         SYMBOL        timeOut
  X:001FH         SYMBOL        cont
  -------         ENDDO         
  C:4C31H         LINE#         509
  C:4C37H         LINE#         510
  C:4C37H         LINE#         514
  C:4C39H         LINE#         515
  C:4C3BH         LINE#         516
  C:4C3EH         LINE#         517
  C:4C46H         LINE#         519
  C:4C48H         LINE#         520
  C:4C4AH         LINE#         521
  C:4C53H         LINE#         522
  C:4C53H         LINE#         523
  C:4C75H         LINE#         524
  C:4C89H         LINE#         525
  C:4C89H         LINE#         526
  C:4C8EH         LINE#         527
  C:4C8EH         LINE#         528
  C:4C90H         LINE#         529
  C:4C99H         LINE#         530
  C:4C99H         LINE#         531
  C:4C9FH         LINE#         532
  C:4CA2H         LINE#         533
  C:4CA2H         LINE#         534
  C:4CA4H         LINE#         535
  C:4CA6H         LINE#         536
  C:4CA8H         LINE#         538
  C:4CABH         LINE#         540
BL51 BANKED LINKER/LOCATER V6.22.2.0                                                  10/25/2021  16:12:58  PAGE 55


  C:4CB2H         LINE#         541
  -------         ENDPROC       _SEND_PORTERR
  -------         PROC          COND_INI_PTO
  C:5E28H         LINE#         547
  C:5E28H         LINE#         548
  C:5E28H         LINE#         550
  C:5E2AH         LINE#         551
  C:5E2CH         LINE#         552
  C:5E2EH         LINE#         553
  C:5E31H         LINE#         554
  -------         ENDPROC       COND_INI_PTO
  -------         PROC          LOAD_AND_SEND_INFO_RELOJ
  -------         DO            
  X:0010H         SYMBOL        buffer_info
  -------         ENDDO         
  C:5AFEH         LINE#         559
  C:5AFEH         LINE#         560
  C:5AFEH         LINE#         563
  C:5B04H         LINE#         565
  C:5B08H         LINE#         567
  C:5B11H         LINE#         568
  C:5B1BH         LINE#         569
  C:5B1FH         LINE#         573
  -------         ENDPROC       LOAD_AND_SEND_INFO_RELOJ
  -------         PROC          LOAD_AND_SEND_ID_COD
  -------         DO            
  X:0010H         SYMBOL        buffer_info
  X:001BH         SYMBOL        buf
  X:001FH         SYMBOL        i
  X:0020H         SYMBOL        k
  -------         ENDDO         
  C:3220H         LINE#         580
  C:3220H         LINE#         581
  C:3220H         LINE#         585
  C:3225H         LINE#         587
  C:322BH         LINE#         588
  C:322FH         LINE#         589
  C:3255H         LINE#         590
  C:325BH         LINE#         591
  C:325BH         LINE#         592
  C:326CH         LINE#         593
  C:326CH         LINE#         594
  C:327BH         LINE#         595
  C:3281H         LINE#         596
  C:3283H         LINE#         597
  C:329BH         LINE#         599
  C:32A3H         LINE#         602
  C:32C9H         LINE#         604
  C:32CEH         LINE#         605
  C:32CEH         LINE#         606
  C:32DFH         LINE#         607
  C:32DFH         LINE#         608
  C:32EEH         LINE#         609
  C:32F4H         LINE#         610
  C:330EH         LINE#         611
  C:3316H         LINE#         614
  C:3327H         LINE#         615
BL51 BANKED LINKER/LOCATER V6.22.2.0                                                  10/25/2021  16:12:58  PAGE 56


  -------         ENDPROC       LOAD_AND_SEND_ID_COD
  -------         ENDMOD        PTO_PARALELO

  -------         MODULE        TIBBO
  C:0000H         SYMBOL        _ICE_DUMMY_
  C:5961H         PUBLIC        _Debug_txt_Tibbo
  D:0080H         PUBLIC        P0
  D:0090H         PUBLIC        P1
  B:0090H.0       PUBLIC        txd2
  B:00A8H.7       PUBLIC        EA
  C:537DH         PUBLIC        _tx_aux
  B:0080H.0       PUBLIC        rx_ip
  C:5E3BH         PUBLIC        Debug_Dividir_texto
  C:5E80H         PUBLIC        cond_ini_tibbo
  C:5CDDH         PUBLIC        time_mbit
  C:4CB9H         PUBLIC        rx_Data
  C:5C2EH         PUBLIC        time_bit
  C:502DH         PUBLIC        _DebugBufferMF
  C:56D2H         PUBLIC        _Debug_chr_Tibbo
  C:5C28H         SYMBOL        L?0058
  -------         PROC          L?0057
  -------         ENDPROC       L?0057
  C:5C28H         SYMBOL        L?0058
  -------         PROC          TIME_BIT
  -------         DO            
  D:0007H         SYMBOL        j
  -------         ENDDO         
  C:5C2EH         LINE#         18
  C:5C2EH         LINE#         19
  C:5C2EH         LINE#         22
  C:5C3AH         LINE#         23
  C:5C3AH         LINE#         24
  C:5C3BH         LINE#         25
  C:5C3CH         LINE#         26
  C:5C3DH         LINE#         27
  C:5C3EH         LINE#         28
  C:5C3FH         LINE#         29
  C:5C40H         LINE#         30
  C:5C41H         LINE#         31
  C:5C42H         LINE#         32
  C:5C43H         LINE#         34
  C:5C44H         LINE#         35
  C:5C47H         LINE#         36
  -------         ENDPROC       TIME_BIT
  -------         PROC          TIME_MBIT
  -------         DO            
  D:0007H         SYMBOL        j
  -------         ENDDO         
  C:5CDDH         LINE#         39
  C:5CDDH         LINE#         40
  C:5CDDH         LINE#         42
  C:5CE9H         LINE#         43
  C:5CE9H         LINE#         44
  C:5CEAH         LINE#         45
  C:5CEBH         LINE#         46
  C:5CECH         LINE#         47
  C:5CEDH         LINE#         48
BL51 BANKED LINKER/LOCATER V6.22.2.0                                                  10/25/2021  16:12:58  PAGE 57


  C:5CEEH         LINE#         49
  C:5CEFH         LINE#         50
  C:5CF0H         LINE#         52
  C:5CF1H         LINE#         53
  C:5CF2H         LINE#         54
  C:5CF3H         LINE#         55
  C:5CF6H         LINE#         57
  -------         ENDPROC       TIME_MBIT
  -------         PROC          _TX_AUX
  D:0006H         SYMBOL        caracter
  -------         DO            
  D:0004H         SYMBOL        j
  D:0005H         SYMBOL        temporal
  D:0006H         SYMBOL        bitTX
  -------         ENDDO         
  C:537DH         LINE#         62
  C:537FH         LINE#         63
  C:537FH         LINE#         66
  C:5381H         LINE#         67
  C:5383H         LINE#         68
  C:5386H         LINE#         69
  C:5387H         LINE#         70
  C:5388H         LINE#         71
  C:538AH         LINE#         72
  C:538EH         LINE#         73
  C:5390H         LINE#         74
  C:5390H         LINE#         75
  C:5392H         LINE#         76
  C:5394H         LINE#         78
  C:5394H         LINE#         79
  C:5396H         LINE#         80
  C:5396H         LINE#         81
  C:5399H         LINE#         82
  C:53A5H         LINE#         83
  C:53A5H         LINE#         84
  C:53A9H         LINE#         85
  C:53ACH         LINE#         86
  C:53AEH         LINE#         87
  C:53AEH         LINE#         88
  C:53B0H         LINE#         89
  C:53B2H         LINE#         91
  C:53B2H         LINE#         92
  C:53B4H         LINE#         93
  C:53B4H         LINE#         94
  C:53B7H         LINE#         95
  C:53BAH         LINE#         96
  C:53BCH         LINE#         97
  C:53BFH         LINE#         98
  C:53C2H         LINE#         100
  C:53C4H         LINE#         101
  -------         ENDPROC       _TX_AUX
  -------         PROC          _DEBUG_CHR_TIBBO
  D:0003H         SYMBOL        Dat
  -------         DO            
  D:0007H         SYMBOL        temp
  -------         ENDDO         
  C:56D2H         LINE#         137
BL51 BANKED LINKER/LOCATER V6.22.2.0                                                  10/25/2021  16:12:58  PAGE 58


  C:56D4H         LINE#         138
  C:56D4H         LINE#         140
  C:56DCH         LINE#         141
  C:56DCH         LINE#         142
  C:56E3H         LINE#         143
  C:56F6H         LINE#         145
  C:56F9H         LINE#         147
  C:56FDH         LINE#         148
  C:5710H         LINE#         149
  C:5713H         LINE#         150
  C:5718H         LINE#         152
  C:5718H         LINE#         153
  -------         ENDPROC       _DEBUG_CHR_TIBBO
  -------         PROC          _DEBUGBUFFERMF
  X:003DH         SYMBOL        str
  X:0040H         SYMBOL        num_char
  X:0041H         SYMBOL        io
  -------         DO            
  X:0042H         SYMBOL        j
  -------         ENDDO         
  C:502DH         LINE#         160
  C:503BH         LINE#         161
  C:503BH         LINE#         165
  C:5043H         LINE#         166
  C:5043H         LINE#         167
  C:5052H         LINE#         168
  C:5052H         LINE#         169
  C:5056H         LINE#         170
  C:505FH         LINE#         171
  C:5071H         LINE#         172
  C:5071H         LINE#         173
  C:5083H         LINE#         174
  C:508DH         LINE#         175
  C:5095H         LINE#         177
  C:509AH         LINE#         178
  C:509AH         LINE#         180
  -------         ENDPROC       _DEBUGBUFFERMF
  -------         PROC          _DEBUG_TXT_TIBBO
  X:0043H         SYMBOL        str
  -------         DO            
  X:0046H         SYMBOL        i
  -------         ENDDO         
  C:5961H         LINE#         185
  C:596CH         LINE#         186
  C:596CH         LINE#         188
  C:596FH         LINE#         190
  C:5977H         LINE#         191
  C:5977H         LINE#         192
  C:5993H         LINE#         193
  C:5993H         LINE#         194
  C:5996H         LINE#         195
  C:599EH         LINE#         197
  C:599EH         LINE#         198
  -------         ENDPROC       _DEBUG_TXT_TIBBO
  -------         PROC          DEBUG_DIVIDIR_TEXTO
  C:5E3BH         LINE#         200
  C:5E3BH         LINE#         201
BL51 BANKED LINKER/LOCATER V6.22.2.0                                                  10/25/2021  16:12:58  PAGE 59


  C:5E3BH         LINE#         202
  -------         ENDPROC       DEBUG_DIVIDIR_TEXTO
  -------         PROC          RX_DATA
  -------         DO            
  D:0006H         SYMBOL        temporal
  -------         ENDDO         
  C:4CB9H         LINE#         208
  C:4CB9H         LINE#         209
  C:4CB9H         LINE#         212
  C:4CBBH         LINE#         213
  C:4CBEH         LINE#         215
  C:4CC1H         LINE#         217
  C:4CCDH         LINE#         218
  C:4CCDH         LINE#         220
  C:4CD0H         LINE#         222
  C:4CDCH         LINE#         223
  C:4CDCH         LINE#         225
  C:4CDFH         LINE#         227
  C:4CEBH         LINE#         228
  C:4CEBH         LINE#         230
  C:4CEEH         LINE#         232
  C:4CFAH         LINE#         233
  C:4CFAH         LINE#         235
  C:4CFDH         LINE#         237
  C:4D09H         LINE#         238
  C:4D09H         LINE#         240
  C:4D0CH         LINE#         242
  C:4D18H         LINE#         243
  C:4D18H         LINE#         245
  C:4D1BH         LINE#         247
  C:4D27H         LINE#         248
  C:4D27H         LINE#         250
  C:4D2AH         LINE#         251
  C:4D38H         LINE#         253
  C:4D3BH         LINE#         254
  C:4D3EH         LINE#         255
  C:4D3EH         LINE#         256
  C:4D3EH         LINE#         258
  C:4D40H         LINE#         260
  -------         ENDPROC       RX_DATA
  -------         PROC          COND_INI_TIBBO
  C:5E80H         LINE#         280
  C:5E80H         LINE#         281
  C:5E80H         LINE#         283
  C:5E82H         LINE#         284
  C:5E84H         LINE#         285
  -------         ENDPROC       COND_INI_TIBBO
  -------         ENDMOD        TIBBO

  -------         MODULE        UART
  C:0000H         SYMBOL        _ICE_DUMMY_
  C:5B7CH         PUBLIC        com_getchar
  C:5D9BH         PUBLIC        com_rbuflen
  C:5DADH         PUBLIC        com_tbuflen
  B:00A8H.4       PUBLIC        ES
  B:0098H.0       PUBLIC        RI
  C:5A55H         PUBLIC        _com_putchar
BL51 BANKED LINKER/LOCATER V6.22.2.0                                                  10/25/2021  16:12:58  PAGE 60


  B:0098H.1       PUBLIC        TI
  B:00B8H.4       PUBLIC        PS
  D:0009H         SYMBOL        r_in
  D:000AH         SYMBOL        r_out
  D:000BH         SYMBOL        t_in
  D:000CH         SYMBOL        t_out
  D:0099H         PUBLIC        SBUF
  D:0087H         PUBLIC        PCON
  D:0089H         PUBLIC        TMOD
  B:0021H.3       SYMBOL        ti_restart
  B:00A8H.3       PUBLIC        ET1
  D:008DH         PUBLIC        TH1
  B:0098H.7       PUBLIC        SM0
  B:0098H.6       PUBLIC        SM1
  D:008BH         PUBLIC        TL1
  B:0098H.5       PUBLIC        SM2
  B:0088H.6       PUBLIC        TR1
  C:5B2AH         PUBLIC        com_initialize
  B:0098H.4       PUBLIC        REN
  C:5E0EH         PUBLIC        clear_buffer
  C:599FH         PUBLIC        com_baudrate
  C:4D41H         SYMBOL        com_isr
  -------         PROC          COM_ISR
  -------         DO            
  D:0008H         SYMBOL        cDatoRx
  -------         ENDDO         
  C:4D41H         LINE#         108
  C:4D52H         LINE#         116
  C:4D55H         LINE#         117
  C:4D55H         LINE#         119
  C:4D57H         LINE#         120
  C:4D5AH         LINE#         121
  C:4D6AH         LINE#         122
  C:4D6AH         LINE#         123
  C:4D73H         LINE#         124
  C:4D75H         LINE#         125
  C:4D7CH         LINE#         126
  C:4D82H         LINE#         127
  C:4D82H         LINE#         128
  C:4D87H         LINE#         129
  C:4D87H         LINE#         130
  C:4D8DH         LINE#         132
  C:4D8FH         LINE#         133
  C:4D94H         LINE#         134
  C:4D94H         LINE#         135
  C:4D9AH         LINE#         137
  C:4D9AH         LINE#         277
  C:4D9AH         LINE#         281
  C:4D9DH         LINE#         282
  C:4D9DH         LINE#         283
  C:4D9FH         LINE#         285
  C:4DA5H         LINE#         286
  C:4DA5H         LINE#         287
  C:4DAFH         LINE#         288
  C:4DB1H         LINE#         289
  C:4DB3H         LINE#         290
  C:4DB5H         LINE#         292
BL51 BANKED LINKER/LOCATER V6.22.2.0                                                  10/25/2021  16:12:58  PAGE 61


  C:4DB5H         LINE#         293
  C:4DB7H         LINE#         294
  C:4DB7H         LINE#         295
  C:4DB7H         LINE#         298
  -------         ENDPROC       COM_ISR
  -------         PROC          COM_INITIALIZE
  C:5B2AH         LINE#         303
  C:5B31H         LINE#         304
  C:5B31H         LINE#         308
  C:5B34H         LINE#         313
  C:5B37H         LINE#         314
  C:5B39H         LINE#         316
  C:5B3BH         LINE#         317
  C:5B3DH         LINE#         322
  C:5B41H         LINE#         323
  C:5B43H         LINE#         324
  C:5B45H         LINE#         326
  C:5B47H         LINE#         327
  C:5B49H         LINE#         328
  C:5B4BH         LINE#         330
  C:5B4DH         LINE#         331
  C:5B4FH         LINE#         332
  -------         ENDPROC       COM_INITIALIZE
  -------         PROC          COM_BAUDRATE
  -------         DO            
  D:0007H         SYMBOL        dataee
  -------         ENDDO         
  C:599FH         LINE#         338
  C:59A6H         LINE#         340
  C:59A6H         LINE#         342
  C:59AFH         LINE#         346
  C:59B1H         LINE#         347
  C:59B4H         LINE#         348
  C:59B6H         LINE#         353
  C:59B8H         LINE#         354
  C:59BAH         LINE#         356
  C:59BDH         LINE#         358
  C:59C0H         LINE#         359
  C:59C3H         LINE#         360
  C:59C6H         LINE#         361
  C:59C6H         LINE#         362
  C:59C9H         LINE#         363
  C:59CCH         LINE#         364
  C:59CEH         LINE#         365
  C:59D0H         LINE#         367
  C:59D0H         LINE#         369
  C:59D3H         LINE#         370
  C:59D6H         LINE#         371
  C:59D8H         LINE#         372
  C:59D8H         LINE#         373
  -------         ENDPROC       COM_BAUDRATE
  -------         PROC          _COM_PUTCHAR
  X:00B4H         SYMBOL        c
  C:5A55H         LINE#         379
  C:5A61H         LINE#         381
  C:5A61H         LINE#         385
  C:5A6EH         LINE#         386
BL51 BANKED LINKER/LOCATER V6.22.2.0                                                  10/25/2021  16:12:58  PAGE 62


  C:5A72H         LINE#         392
  C:5A80H         LINE#         393
  C:5A82H         LINE#         395
  C:5A85H         LINE#         396
  C:5A85H         LINE#         397
  C:5A87H         LINE#         398
  C:5A89H         LINE#         399
  C:5A89H         LINE#         401
  C:5A8BH         LINE#         402
  -------         ENDPROC       _COM_PUTCHAR
  -------         PROC          COM_GETCHAR
  C:5B7CH         LINE#         408
  C:5B83H         LINE#         409
  C:5B83H         LINE#         410
  C:5B89H         LINE#         411
  C:5B8FH         LINE#         413
  C:5B9DH         LINE#         414
  -------         ENDPROC       COM_GETCHAR
  -------         PROC          COM_RBUFLEN
  C:5D9BH         LINE#         420
  C:5DA2H         LINE#         421
  C:5DA2H         LINE#         422
  C:5DA8H         LINE#         423
  -------         ENDPROC       COM_RBUFLEN
  -------         PROC          COM_TBUFLEN
  C:5DADH         LINE#         429
  C:5DB4H         LINE#         430
  C:5DB4H         LINE#         431
  C:5DBAH         LINE#         432
  -------         ENDPROC       COM_TBUFLEN
  -------         PROC          CLEAR_BUFFER
  C:5E0EH         LINE#         433
  C:5E0EH         LINE#         434
  C:5E0EH         LINE#         435
  C:5E11H         LINE#         436
  C:5E13H         LINE#         438
  C:5E15H         LINE#         439
  C:5E17H         LINE#         440
  C:5E19H         LINE#         441
  C:5E1BH         LINE#         442
  -------         ENDPROC       CLEAR_BUFFER
  -------         ENDMOD        UART

  -------         MODULE        ACCESCAN
  C:0000H         SYMBOL        _ICE_DUMMY_
  D:0080H         PUBLIC        P0
  D:0090H         PUBLIC        P1
  B:0080H.2       PUBLIC        led_err_imp
  B:0080H.3       PUBLIC        Atascado
  B:0090H.7       PUBLIC        lock
  C:1CDDH         PUBLIC        _Valida_Trama_Pto
  -------         PROC          _VALIDA_TRAMA_PTO
  X:000EH         SYMBOL        buffer
  X:0011H         SYMBOL        length_trama
  -------         DO            
  X:0012H         SYMBOL        buff
  -------         ENDDO         
BL51 BANKED LINKER/LOCATER V6.22.2.0                                                  10/25/2021  16:12:58  PAGE 63


  C:1CDDH         LINE#         84
  C:1CEBH         LINE#         85
  C:1CEBH         LINE#         88
  C:1D21H         LINE#         89
  C:1D21H         LINE#         91
  C:1D30H         LINE#         93
  C:1D33H         LINE#         95
  C:1D33H         LINE#         97
  C:1D45H         LINE#         98
  C:1D45H         LINE#         99
  C:1D52H         LINE#         100
  C:1D52H         LINE#         101
  C:1D57H         LINE#         102
  C:1D59H         LINE#         103
  C:1D5EH         LINE#         104
  C:1D60H         LINE#         105
  C:1D62H         LINE#         107
  C:1D62H         LINE#         108
  C:1D76H         LINE#         109
  C:1D76H         LINE#         110
  C:1D76H         LINE#         111
  C:1D76H         LINE#         113
  C:1D76H         LINE#         114
  C:1D76H         LINE#         115
  C:1D78H         LINE#         117
  C:1D8AH         LINE#         118
  C:1D8AH         LINE#         120
  C:1D9AH         LINE#         121
  C:1D9AH         LINE#         122
  C:1D9CH         LINE#         123
  C:1D9EH         LINE#         124
  C:1DA0H         LINE#         125
  C:1DA2H         LINE#         127
  C:1DB6H         LINE#         128
  C:1DB6H         LINE#         129
  C:1DBBH         LINE#         130
  C:1DC4H         LINE#         132
  C:1DC9H         LINE#         133
  C:1DC9H         LINE#         134
  C:1DC9H         LINE#         136
  C:1DCAH         LINE#         139
  C:1DE4H         LINE#         140
  C:1DE4H         LINE#         141
  C:1DE6H         LINE#         142
  C:1DE9H         LINE#         145
  C:1E03H         LINE#         146
  C:1E03H         LINE#         147
  C:1E05H         LINE#         148
  C:1E08H         LINE#         150
  C:1E22H         LINE#         151
  C:1E22H         LINE#         152
  C:1E24H         LINE#         153
  C:1E27H         LINE#         155
  C:1E41H         LINE#         156
  C:1E41H         LINE#         157
  C:1E43H         LINE#         158
  C:1E46H         LINE#         160
BL51 BANKED LINKER/LOCATER V6.22.2.0                                                  10/25/2021  16:12:58  PAGE 64


  C:1E60H         LINE#         161
  C:1E60H         LINE#         162
  C:1E62H         LINE#         163
  C:1E65H         LINE#         165
  C:1E7FH         LINE#         166
  C:1E7FH         LINE#         167
  C:1E81H         LINE#         168
  C:1E83H         LINE#         170
  C:1EB3H         LINE#         171
  C:1EB3H         LINE#         172
  C:1EB6H         LINE#         173
  C:1EB6H         LINE#         175
  C:1EEDH         LINE#         176
  C:1EEDH         LINE#         177
  C:1EF2H         LINE#         178
  C:1EF2H         LINE#         180
  C:1F2AH         LINE#         181
  C:1F2AH         LINE#         183
  C:1F32H         LINE#         184
  C:1F3EH         LINE#         187
  C:1F43H         LINE#         188
  C:1F45H         LINE#         189
  C:1F4BH         LINE#         190
  C:1F50H         LINE#         191
  C:1F50H         LINE#         192
  C:1F50H         LINE#         196
  C:1F53H         LINE#         200
  C:1F93H         LINE#         201
  C:1F93H         LINE#         203
  C:1FA8H         LINE#         204
  C:1FAEH         LINE#         205
  C:1FD8H         LINE#         207
  C:1FE0H         LINE#         208
  C:1FE0H         LINE#         210
  C:1FE7H         LINE#         211
  C:1FE7H         LINE#         212
  C:1FECH         LINE#         213
  C:1FECH         LINE#         214
  C:1FEEH         LINE#         216
  C:1FEEH         LINE#         217
  C:1FF7H         LINE#         218
  C:1FF7H         LINE#         219
  C:1FF7H         LINE#         221
  C:1FF9H         LINE#         224
  C:1FF9H         LINE#         227
  C:2004H         LINE#         231
  C:2004H         LINE#         232
  C:2004H         LINE#         233
  C:2031H         LINE#         234
  C:2031H         LINE#         235
  C:2040H         LINE#         238
  C:2049H         LINE#         239
  C:2060H         LINE#         242
  C:2060H         LINE#         244
  C:2072H         LINE#         245
  C:2072H         LINE#         246
  C:2077H         LINE#         247
BL51 BANKED LINKER/LOCATER V6.22.2.0                                                  10/25/2021  16:12:58  PAGE 65


  C:207DH         LINE#         248
  C:2083H         LINE#         250
  C:2083H         LINE#         252
  -------         ENDPROC       _VALIDA_TRAMA_PTO
  -------         ENDMOD        ACCESCAN

  -------         MODULE        VERPRINT
  C:0000H         SYMBOL        _ICE_DUMMY_
  C:2084H         PUBLIC        Lee_ticket
  D:0090H         PUBLIC        P1
  C:5BA2H         PUBLIC        _num_num
  B:00A8H.4       PUBLIC        ES
  C:411BH         PUBLIC        _check_fechaOut_2
  B:0090H.7       PUBLIC        lock
  C:5C73H         PUBLIC        _num_char
  -------         PROC          _NUM_NUM
  D:0001H         SYMBOL        p
  -------         DO            
  D:0007H         SYMBOL        contador
  -------         ENDDO         
  C:5BA2H         LINE#         68
  C:5BA2H         LINE#         69
  C:5BA2H         LINE#         70
  C:5BA4H         LINE#         71
  C:5BBBH         LINE#         72
  C:5BBBH         LINE#         74
  C:5BC2H         LINE#         75
  C:5BC3H         LINE#         76
  C:5BC5H         LINE#         77
  C:5BC5H         LINE#         78
  -------         ENDPROC       _NUM_NUM
  -------         PROC          L?0047
  -------         ENDPROC       L?0047
  -------         PROC          _NUM_CHAR
  D:0001H         SYMBOL        p
  D:0005H         SYMBOL        chr
  -------         DO            
  D:0007H         SYMBOL        contador
  -------         ENDDO         
  C:5C73H         LINE#         82
  C:5C73H         LINE#         83
  C:5C73H         LINE#         84
  C:5C75H         LINE#         85
  C:5C7BH         LINE#         86
  C:5C7BH         LINE#         88
  C:5C82H         LINE#         89
  C:5C83H         LINE#         90
  C:5C85H         LINE#         91
  C:5C85H         LINE#         92
  -------         ENDPROC       _NUM_CHAR
  -------         PROC          _CHECK_FECHAOUT_2
  X:0172H         SYMBOL        buffer
  -------         DO            
  X:0175H         SYMBOL        fecha_inicio
  X:0179H         SYMBOL        fecha_fin
  X:017DH         SYMBOL        datos_clk
  X:0183H         SYMBOL        temp
BL51 BANKED LINKER/LOCATER V6.22.2.0                                                  10/25/2021  16:12:58  PAGE 66


  -------         ENDDO         
  C:411BH         LINE#         93
  C:4126H         LINE#         94
  C:4126H         LINE#         100
  C:412FH         LINE#         101
  C:415EH         LINE#         102
  C:41A3H         LINE#         105
  C:41C3H         LINE#         106
  C:41C3H         LINE#         107
  C:41C9H         LINE#         108
  C:41CBH         LINE#         110
  C:41CBH         LINE#         111
  C:41D0H         LINE#         112
  C:41D0H         LINE#         116
  C:41D5H         LINE#         117
  -------         ENDPROC       _CHECK_FECHAOUT_2
  -------         PROC          LEE_TICKET
  -------         DO            
  X:015CH         SYMBOL        paso_una_vez
  X:015DH         SYMBOL        Ticket
  X:0167H         SYMBOL        fecha
  X:000EH         SYMBOL        temp
  X:000FH         SYMBOL        temp2
  X:0010H         SYMBOL        vehiculo
  X:0011H         SYMBOL        tipo_vehiculo
  -------         ENDDO         
  C:2084H         LINE#         124
  C:2084H         LINE#         125
  C:2084H         LINE#         131
  C:20AAH         LINE#         132
  C:20AAH         LINE#         133
  C:20AAH         LINE#         136
  C:20B5H         LINE#         137
  C:20B5H         LINE#         138
  C:20B7H         LINE#         140
  C:20BDH         LINE#         141
  C:20BDH         LINE#         142
  C:20C6H         LINE#         143
  C:20CBH         LINE#         144
  C:20D1H         LINE#         145
  C:20D1H         LINE#         146
  C:20D6H         LINE#         147
  C:20DCH         LINE#         148
  C:20DCH         LINE#         149
  C:20DCH         LINE#         150
  C:20DCH         LINE#         154
  C:20DFH         LINE#         156
  C:20DFH         LINE#         157
  C:20E8H         LINE#         158
  C:20EDH         LINE#         159
  C:20EDH         LINE#         160
  C:20EDH         LINE#         162
  C:20EDH         LINE#         163
  C:20EDH         LINE#         164
  C:20F0H         LINE#         169
  C:20F0H         LINE#         170
  C:2101H         LINE#         171
BL51 BANKED LINKER/LOCATER V6.22.2.0                                                  10/25/2021  16:12:58  PAGE 67


  C:2101H         LINE#         172
  C:2109H         LINE#         173
  C:2109H         LINE#         175
  C:2112H         LINE#         176
  C:211BH         LINE#         177
  C:2124H         LINE#         178
  C:212AH         LINE#         179
  C:2130H         LINE#         182
  C:2131H         LINE#         183
  C:2139H         LINE#         184
  C:2139H         LINE#         186
  C:2147H         LINE#         187
  C:2155H         LINE#         188
  C:2162H         LINE#         189
  C:216CH         LINE#         190
  C:216CH         LINE#         191
  C:216FH         LINE#         192
  C:2174H         LINE#         193
  C:2174H         LINE#         194
  C:2174H         LINE#         195
  C:2177H         LINE#         196
  C:2177H         LINE#         198
  C:2180H         LINE#         199
  C:2189H         LINE#         200
  C:2192H         LINE#         205
  C:2198H         LINE#         206
  C:2199H         LINE#         208
  C:2199H         LINE#         210
  C:219CH         LINE#         211
  C:21A1H         LINE#         212
  C:21A5H         LINE#         213
  C:21AEH         LINE#         214
  C:21B4H         LINE#         215
  C:21B4H         LINE#         216
  C:21B4H         LINE#         220
  C:21B4H         LINE#         221
  C:21B7H         LINE#         222
  C:21B7H         LINE#         225
  C:21C0H         LINE#         226
  C:21C5H         LINE#         227
  C:21CBH         LINE#         228
  C:21D5H         LINE#         230
  C:21DBH         LINE#         231
  C:21DBH         LINE#         232
  C:21E9H         LINE#         233
  C:21E9H         LINE#         234
  C:21E9H         LINE#         235
  C:21E9H         LINE#         238
  C:21ECH         LINE#         240
  C:21ECH         LINE#         243
  C:21F7H         LINE#         244
  C:21F7H         LINE#         246
  C:2200H         LINE#         248
  C:2205H         LINE#         250
  C:220DH         LINE#         251
  C:2215H         LINE#         252
  C:223BH         LINE#         253
BL51 BANKED LINKER/LOCATER V6.22.2.0                                                  10/25/2021  16:12:58  PAGE 68


  C:223BH         LINE#         254
  C:223EH         LINE#         255
  C:2240H         LINE#         257
  C:2240H         LINE#         258
  C:2243H         LINE#         259
  C:2243H         LINE#         260
  C:224CH         LINE#         261
  C:2254H         LINE#         262
  C:225DH         LINE#         264
  C:2266H         LINE#         265
  C:226EH         LINE#         266
  C:2277H         LINE#         267
  C:227FH         LINE#         268
  C:2288H         LINE#         270
  C:228DH         LINE#         271
  C:2299H         LINE#         272
  C:2299H         LINE#         273
  C:22BFH         LINE#         274
  C:22CEH         LINE#         276
  C:22D7H         LINE#         277
  C:22E0H         LINE#         280
  C:22EFH         LINE#         281
  C:22F7H         LINE#         282
  C:2316H         LINE#         284
  C:231FH         LINE#         285
  C:2328H         LINE#         286
  C:2331H         LINE#         288
  C:233FH         LINE#         291
  C:2345H         LINE#         292
  C:2345H         LINE#         293
  C:2353H         LINE#         294
  C:2353H         LINE#         295
  C:2353H         LINE#         296
  C:2353H         LINE#         297
  C:2355H         LINE#         298
  C:2355H         LINE#         300
  C:2355H         LINE#         301
  C:2357H         LINE#         302
  C:235AH         LINE#         305
  C:2360H         LINE#         306
  C:2366H         LINE#         308
  C:2366H         LINE#         309
  C:2366H         LINE#         310
  C:2367H         LINE#         311
  C:2367H         LINE#         312
  C:236FH         LINE#         313
  C:236FH         LINE#         314
  C:2371H         LINE#         315
  C:237AH         LINE#         317
  C:2380H         LINE#         318
  C:2383H         LINE#         319
  C:2388H         LINE#         320
  C:2388H         LINE#         321
  C:2388H         LINE#         322
  C:238AH         LINE#         323
  C:238AH         LINE#         324
  C:238FH         LINE#         325
BL51 BANKED LINKER/LOCATER V6.22.2.0                                                  10/25/2021  16:12:58  PAGE 69


  C:2390H         LINE#         327
  C:2390H         LINE#         328
  C:2398H         LINE#         329
  C:2398H         LINE#         330
  C:23A1H         LINE#         332
  C:23AFH         LINE#         333
  C:23B5H         LINE#         334
  C:23BBH         LINE#         335
  C:23BBH         LINE#         336
  C:23BBH         LINE#         337
  C:23BBH         LINE#         338
  -------         ENDPROC       LEE_TICKET
  -------         ENDMOD        VERPRINT

  -------         MODULE        ?C?FPADD
  C:0D61H         PUBLIC        ?C?FPADD
  C:0D5DH         PUBLIC        ?C?FPSUB
  -------         ENDMOD        ?C?FPADD

  -------         MODULE        ?C?FPMUL
  C:0E52H         PUBLIC        ?C?FPMUL
  -------         ENDMOD        ?C?FPMUL

  -------         MODULE        ?C?FCAST
  C:0F62H         PUBLIC        ?C?FCASTC
  C:0F5DH         PUBLIC        ?C?FCASTI
  C:0F58H         PUBLIC        ?C?FCASTL
  -------         ENDMOD        ?C?FCAST

  -------         MODULE        ?C?CASTF
  C:0F96H         PUBLIC        ?C?CASTF
  -------         ENDMOD        ?C?CASTF

  -------         MODULE        PRINTF
  X:0081H         PUBLIC        ?_PRINTF?BYTE
  X:0081H         PUBLIC        ?_SPRINTF?BYTE
  C:18C5H         PUBLIC        _PRINTF
  C:18BFH         PUBLIC        _SPRINTF
  -------         ENDMOD        PRINTF

  -------         MODULE        POW
  X:0029H         PUBLIC        ?_pow?BYTE
  C:2A9EH         PUBLIC        _pow
  -------         ENDMOD        POW

  -------         MODULE        ?C?CHKFLOAT
  C:1017H         PUBLIC        ?C?CHKFLOAT
  -------         ENDMOD        ?C?CHKFLOAT

  -------         MODULE        ?C?FPCMP
  C:1033H         PUBLIC        ?C?FPCMP
  C:1031H         PUBLIC        ?C?FPCMP3
  -------         ENDMOD        ?C?FPCMP

  -------         MODULE        ?C?FPNEG
  C:10AAH         PUBLIC        ?C?FPNEG
  -------         ENDMOD        ?C?FPNEG
BL51 BANKED LINKER/LOCATER V6.22.2.0                                                  10/25/2021  16:12:58  PAGE 70



  -------         MODULE        ?C?FPROUND
  C:10BBH         PUBLIC        ?C?FPROUND
  -------         ENDMOD        ?C?FPROUND

  -------         MODULE        ?C?FPCONVERT
  C:10F8H         PUBLIC        ?C?FPCONVERT
  -------         ENDMOD        ?C?FPCONVERT

  -------         MODULE        EXP
  C:46C4H         PUBLIC        _EXP
  -------         ENDMOD        EXP

  -------         MODULE        LOG
  C:312BH         PUBLIC        _LOG
  C:3127H         PUBLIC        _LOG10
  -------         ENDMOD        LOG

  -------         MODULE        ?C?FPDIV
  C:1200H         PUBLIC        ?C?FPDIV
  -------         ENDMOD        ?C?FPDIV

  -------         MODULE        ?C?FTNPWR
  C:12CDH         PUBLIC        ?C?FTNPWR
  -------         ENDMOD        ?C?FTNPWR

  -------         MODULE        ?C?COPY
  C:142AH         PUBLIC        ?C?COPY
  -------         ENDMOD        ?C?COPY

  -------         MODULE        ?C?CLDPTR
  C:1450H         PUBLIC        ?C?CLDPTR
  -------         ENDMOD        ?C?CLDPTR

  -------         MODULE        ?C?CLDOPTR
  C:1469H         PUBLIC        ?C?CLDOPTR
  -------         ENDMOD        ?C?CLDOPTR

  -------         MODULE        ?C?CSTPTR
  C:1496H         PUBLIC        ?C?CSTPTR
  -------         ENDMOD        ?C?CSTPTR

  -------         MODULE        ?C?CSTOPTR
  C:14A8H         PUBLIC        ?C?CSTOPTR
  -------         ENDMOD        ?C?CSTOPTR

  -------         MODULE        ?C?IMUL
  C:14CAH         PUBLIC        ?C?IMUL
  -------         ENDMOD        ?C?IMUL

  -------         MODULE        ?C?IILDX
  C:14DCH         PUBLIC        ?C?IILDX
  -------         ENDMOD        ?C?IILDX

  -------         MODULE        ?C?LNEG
  C:14F2H         PUBLIC        ?C?LNEG
  -------         ENDMOD        ?C?LNEG
BL51 BANKED LINKER/LOCATER V6.22.2.0                                                  10/25/2021  16:12:58  PAGE 71



  -------         MODULE        ?C?ULCMP
  C:1500H         PUBLIC        ?C?ULCMP
  -------         ENDMOD        ?C?ULCMP

  -------         MODULE        ?C?LLDCODE
  C:1511H         PUBLIC        ?C?LLDCODE
  -------         ENDMOD        ?C?LLDCODE

  -------         MODULE        ?C?LLDXDATA0
  C:1521H         PUBLIC        ?C?LLDXDATA0
  -------         ENDMOD        ?C?LLDXDATA0

  -------         MODULE        ?C?LLDCODE0
  C:152DH         PUBLIC        ?C?LLDCODE0
  -------         ENDMOD        ?C?LLDCODE0

  -------         MODULE        ?C?LSTXDATA
  C:153DH         PUBLIC        ?C?LSTXDATA
  -------         ENDMOD        ?C?LSTXDATA

  -------         MODULE        ?C?LSTKXDATA
  C:1549H         PUBLIC        ?C?LSTKXDATA
  -------         ENDMOD        ?C?LSTKXDATA

  -------         MODULE        ?C?PLDIXDATA
  C:157AH         PUBLIC        ?C?PLDIXDATA
  -------         ENDMOD        ?C?PLDIXDATA

  -------         MODULE        ?C?PSTXDATA
  C:1591H         PUBLIC        ?C?PSTXDATA
  -------         ENDMOD        ?C?PSTXDATA

  -------         MODULE        ?C?CCASE
  C:159AH         PUBLIC        ?C?CCASE
  -------         ENDMOD        ?C?CCASE

  -------         MODULE        STRCAT
  X:0050H         PUBLIC        ?_strcat?BYTE
  C:509BH         PUBLIC        _strcat
  -------         ENDMOD        STRCAT

  -------         MODULE        STRNCAT
  X:003DH         PUBLIC        ?_strncat?BYTE
  C:3D59H         PUBLIC        _strncat
  -------         ENDMOD        STRNCAT

  -------         MODULE        ?C?STRCMP
  C:173EH         PUBLIC        ?C?STRCMP
  -------         ENDMOD        ?C?STRCMP

  -------         MODULE        ?C?STRCPY
  C:1827H         PUBLIC        ?C?STRCPY
  -------         ENDMOD        ?C?STRCPY

  -------         MODULE        STRNCPY
  X:0014H         PUBLIC        ?_strncpy?BYTE
BL51 BANKED LINKER/LOCATER V6.22.2.0                                                  10/25/2021  16:12:58  PAGE 72


  C:5106H         PUBLIC        _strncpy
  -------         ENDMOD        STRNCPY

  -------         MODULE        STRLEN
  C:000EH         PUBLIC        _STRLEN
  -------         ENDMOD        STRLEN

  -------         MODULE        STRSTR
  X:0014H         PUBLIC        ?_strstr?BYTE
  C:3EE2H         PUBLIC        _strstr
  -------         ENDMOD        STRSTR

  -------         MODULE        STRTOK
  X:004AH         PUBLIC        ?_strtok?BYTE
  C:39FEH         PUBLIC        _strtok
  -------         ENDMOD        STRTOK

  -------         MODULE        ATOI
  C:3AE2H         PUBLIC        _atoi
  -------         ENDMOD        ATOI

  -------         MODULE        ?C?ILDIX
  C:1844H         PUBLIC        ?C?ILDIX
  -------         ENDMOD        ?C?ILDIX

  -------         MODULE        ISDIGIT
  C:5DFFH         PUBLIC        _isdigit
  -------         ENDMOD        ISDIGIT

  -------         MODULE        ISSPACE
  C:5D3FH         PUBLIC        _isspace
  -------         ENDMOD        ISSPACE

  -------         MODULE        STRSPN
  X:0050H         PUBLIC        ?_strspn?BYTE
  C:4DC6H         PUBLIC        _strspn
  -------         ENDMOD        STRSPN

  -------         MODULE        STRPBRK
  X:0050H         PUBLIC        ?_strpbrk?BYTE
  C:4E4AH         PUBLIC        _strpbrk
  -------         ENDMOD        STRPBRK

*** WARNING L16: UNCALLED SEGMENT, IGNORED FOR OVERLAY PROCESS
    SEGMENT: ?PR?_CHECK_FECHAOUT_2?VERPRINT

Program Size: data=158.4 xdata=398 code=24204
LINK/LOCATE RUN COMPLETE.  1 WARNING(S),  0 ERROR(S)
